
Node1.elf:     file format elf32-avr

Sections:
Idx Name          Size      VMA       LMA       File off  Algn
  0 .data         000001a2  00800100  000018dc  00001970  2**0
                  CONTENTS, ALLOC, LOAD, DATA
  1 .text         000018dc  00000000  00000000  00000094  2**1
                  CONTENTS, ALLOC, LOAD, READONLY, CODE
  2 .bss          000000a3  008002a2  008002a2  00001b12  2**0
                  ALLOC
  3 .comment      0000005c  00000000  00000000  00001b12  2**0
                  CONTENTS, READONLY
  4 .note.gnu.avr.deviceinfo 0000003c  00000000  00000000  00001b70  2**2
                  CONTENTS, READONLY
  5 .debug_aranges 00000298  00000000  00000000  00001bac  2**0
                  CONTENTS, READONLY, DEBUGGING
  6 .debug_info   000029d3  00000000  00000000  00001e44  2**0
                  CONTENTS, READONLY, DEBUGGING
  7 .debug_abbrev 00001396  00000000  00000000  00004817  2**0
                  CONTENTS, READONLY, DEBUGGING
  8 .debug_line   00001549  00000000  00000000  00005bad  2**0
                  CONTENTS, READONLY, DEBUGGING
  9 .debug_frame  00000640  00000000  00000000  000070f8  2**2
                  CONTENTS, READONLY, DEBUGGING
 10 .debug_str    000008b1  00000000  00000000  00007738  2**0
                  CONTENTS, READONLY, DEBUGGING
 11 .debug_loc    00001246  00000000  00000000  00007fe9  2**0
                  CONTENTS, READONLY, DEBUGGING
 12 .debug_ranges 000002c0  00000000  00000000  0000922f  2**0
                  CONTENTS, READONLY, DEBUGGING

Disassembly of section .text:

00000000 <__vectors>:
       0:	0c 94 60 03 	jmp	0x6c0	; 0x6c0 <__ctors_end>
       4:	0c 94 7d 03 	jmp	0x6fa	; 0x6fa <__bad_interrupt>
       8:	0c 94 7d 03 	jmp	0x6fa	; 0x6fa <__bad_interrupt>
       c:	0c 94 7d 03 	jmp	0x6fa	; 0x6fa <__bad_interrupt>
      10:	0c 94 7d 03 	jmp	0x6fa	; 0x6fa <__bad_interrupt>
      14:	0c 94 7d 03 	jmp	0x6fa	; 0x6fa <__bad_interrupt>
      18:	0c 94 7d 03 	jmp	0x6fa	; 0x6fa <__bad_interrupt>
      1c:	0c 94 7d 03 	jmp	0x6fa	; 0x6fa <__bad_interrupt>
      20:	0c 94 7d 03 	jmp	0x6fa	; 0x6fa <__bad_interrupt>
      24:	0c 94 7d 03 	jmp	0x6fa	; 0x6fa <__bad_interrupt>
      28:	0c 94 7d 03 	jmp	0x6fa	; 0x6fa <__bad_interrupt>
      2c:	0c 94 7d 03 	jmp	0x6fa	; 0x6fa <__bad_interrupt>
      30:	0c 94 7d 03 	jmp	0x6fa	; 0x6fa <__bad_interrupt>
      34:	0c 94 7d 03 	jmp	0x6fa	; 0x6fa <__bad_interrupt>
      38:	0c 94 7d 03 	jmp	0x6fa	; 0x6fa <__bad_interrupt>
      3c:	0c 94 7d 03 	jmp	0x6fa	; 0x6fa <__bad_interrupt>
      40:	0c 94 7d 03 	jmp	0x6fa	; 0x6fa <__bad_interrupt>
      44:	0c 94 7d 03 	jmp	0x6fa	; 0x6fa <__bad_interrupt>
      48:	0c 94 7d 03 	jmp	0x6fa	; 0x6fa <__bad_interrupt>
      4c:	0c 94 7d 03 	jmp	0x6fa	; 0x6fa <__bad_interrupt>
      50:	0c 94 7d 03 	jmp	0x6fa	; 0x6fa <__bad_interrupt>
      54:	0c 94 7d 03 	jmp	0x6fa	; 0x6fa <__bad_interrupt>
      58:	0c 94 7d 03 	jmp	0x6fa	; 0x6fa <__bad_interrupt>
      5c:	0c 94 7d 03 	jmp	0x6fa	; 0x6fa <__bad_interrupt>
      60:	0c 94 7d 03 	jmp	0x6fa	; 0x6fa <__bad_interrupt>
      64:	0c 94 7d 03 	jmp	0x6fa	; 0x6fa <__bad_interrupt>
      68:	0c 94 7d 03 	jmp	0x6fa	; 0x6fa <__bad_interrupt>
      6c:	0c 94 7d 03 	jmp	0x6fa	; 0x6fa <__bad_interrupt>

00000070 <__trampolines_end>:
      70:	00 00       	nop
      72:	00 00       	nop
      74:	00 5c       	subi	r16, 0xC0	; 192
      76:	00 00       	nop
      78:	0c 00       	.word	0x000c	; ????
      7a:	0c 00       	.word	0x000c	; ????
      7c:	7c 28       	or	r7, r12
      7e:	7c 28       	or	r7, r12
      80:	58 dc       	rcall	.-1872   	; 0xfffff932 <__eeprom_end+0xff7ef932>
      82:	68 00       	.word	0x0068	; ????
      84:	24 10       	cpse	r2, r4
      86:	48 00       	.word	0x0048	; ????
      88:	28 54       	subi	r18, 0x48	; 72
      8a:	28 40       	sbci	r18, 0x08	; 8
      8c:	00 0c       	add	r0, r0
      8e:	00 00       	nop
      90:	00 78       	andi	r16, 0x80	; 128
      92:	84 00       	.word	0x0084	; ????
      94:	84 78       	andi	r24, 0x84	; 132
      96:	00 00       	nop
      98:	54 38       	cpi	r21, 0x84	; 132
      9a:	54 00       	.word	0x0054	; ????
      9c:	10 7c       	andi	r17, 0xC0	; 192
      9e:	10 00       	.word	0x0010	; ????
      a0:	80 40       	sbci	r24, 0x00	; 0
      a2:	00 00       	nop
      a4:	10 10       	cpse	r1, r0
      a6:	10 00       	.word	0x0010	; ????
      a8:	00 40       	sbci	r16, 0x00	; 0
      aa:	00 00       	nop
      ac:	60 10       	cpse	r6, r0
      ae:	0c 00       	.word	0x000c	; ????
      b0:	38 54       	subi	r19, 0x48	; 72
      b2:	38 00       	.word	0x0038	; ????
      b4:	48 7c       	andi	r20, 0xC8	; 200
      b6:	40 00       	.word	0x0040	; ????
      b8:	48 64       	ori	r20, 0x48	; 72
      ba:	58 00       	.word	0x0058	; ????
      bc:	44 54       	subi	r20, 0x44	; 68
      be:	2c 00       	.word	0x002c	; ????
      c0:	1c 10       	cpse	r1, r12
      c2:	7c 00       	.word	0x007c	; ????
      c4:	5c 54       	subi	r21, 0x4C	; 76
      c6:	24 00       	.word	0x0024	; ????
      c8:	38 54       	subi	r19, 0x48	; 72
      ca:	24 00       	.word	0x0024	; ????
      cc:	64 14       	cp	r6, r4
      ce:	0c 00       	.word	0x000c	; ????
      d0:	68 54       	subi	r22, 0x48	; 72
      d2:	2c 00       	.word	0x002c	; ????
      d4:	48 54       	subi	r20, 0x48	; 72
      d6:	38 00       	.word	0x0038	; ????
      d8:	00 48       	sbci	r16, 0x80	; 128
      da:	00 00       	nop
      dc:	80 48       	sbci	r24, 0x80	; 128
      de:	00 00       	nop
      e0:	10 28       	or	r1, r0
      e2:	44 00       	.word	0x0044	; ????
      e4:	28 28       	or	r2, r8
      e6:	28 00       	.word	0x0028	; ????
      e8:	44 28       	or	r4, r4
      ea:	10 00       	.word	0x0010	; ????
      ec:	04 54       	subi	r16, 0x44	; 68
      ee:	08 00       	.word	0x0008	; ????
      f0:	38 44       	sbci	r19, 0x48	; 72
      f2:	5c 00       	.word	0x005c	; ????
      f4:	78 14       	cp	r7, r8
      f6:	78 00       	.word	0x0078	; ????
      f8:	7c 54       	subi	r23, 0x4C	; 76
      fa:	28 00       	.word	0x0028	; ????
      fc:	38 44       	sbci	r19, 0x48	; 72
      fe:	28 00       	.word	0x0028	; ????
     100:	7c 44       	sbci	r23, 0x4C	; 76
     102:	38 00       	.word	0x0038	; ????
     104:	7c 54       	subi	r23, 0x4C	; 76
     106:	44 00       	.word	0x0044	; ????
     108:	7c 14       	cp	r7, r12
     10a:	04 00       	.word	0x0004	; ????
     10c:	38 44       	sbci	r19, 0x48	; 72
     10e:	74 00       	.word	0x0074	; ????
     110:	7c 10       	cpse	r7, r12
     112:	7c 00       	.word	0x007c	; ????
     114:	44 7c       	andi	r20, 0xC4	; 196
     116:	44 00       	.word	0x0044	; ????
     118:	20 40       	sbci	r18, 0x00	; 0
     11a:	3c 00       	.word	0x003c	; ????
     11c:	7c 10       	cpse	r7, r12
     11e:	6c 00       	.word	0x006c	; ????
     120:	7c 40       	sbci	r23, 0x0C	; 12
     122:	40 00       	.word	0x0040	; ????
     124:	7c 18       	sub	r7, r12
     126:	7c 00       	.word	0x007c	; ????
     128:	78 10       	cpse	r7, r8
     12a:	3c 00       	.word	0x003c	; ????
     12c:	38 44       	sbci	r19, 0x48	; 72
     12e:	38 00       	.word	0x0038	; ????
     130:	7c 14       	cp	r7, r12
     132:	08 00       	.word	0x0008	; ????
     134:	38 44       	sbci	r19, 0x48	; 72
     136:	b8 00       	.word	0x00b8	; ????
     138:	7c 14       	cp	r7, r12
     13a:	68 00       	.word	0x0068	; ????
     13c:	48 54       	subi	r20, 0x48	; 72
     13e:	24 00       	.word	0x0024	; ????
     140:	04 7c       	andi	r16, 0xC4	; 196
     142:	04 00       	.word	0x0004	; ????
     144:	7c 40       	sbci	r23, 0x0C	; 12
     146:	7c 00       	.word	0x007c	; ????
     148:	3c 60       	ori	r19, 0x0C	; 12
     14a:	3c 00       	.word	0x003c	; ????
     14c:	7c 30       	cpi	r23, 0x0C	; 12
     14e:	7c 00       	.word	0x007c	; ????
     150:	6c 10       	cpse	r6, r12
     152:	6c 00       	.word	0x006c	; ????
     154:	0c 70       	andi	r16, 0x0C	; 12
     156:	0c 00       	.word	0x000c	; ????
     158:	64 54       	subi	r22, 0x44	; 68
     15a:	4c 00       	.word	0x004c	; ????
     15c:	00 7c       	andi	r16, 0xC0	; 192
     15e:	44 00       	.word	0x0044	; ????
     160:	0c 10       	cpse	r0, r12
     162:	60 00       	.word	0x0060	; ????
     164:	44 7c       	andi	r20, 0xC4	; 196
     166:	00 00       	nop
     168:	08 04       	cpc	r0, r8
     16a:	08 00       	.word	0x0008	; ????
     16c:	80 80       	ld	r8, Z
     16e:	80 00       	.word	0x0080	; ????
     170:	00 04       	cpc	r0, r0
     172:	08 00       	.word	0x0008	; ????
     174:	30 48       	sbci	r19, 0x80	; 128
     176:	78 00       	.word	0x0078	; ????
     178:	7c 48       	sbci	r23, 0x8C	; 140
     17a:	30 00       	.word	0x0030	; ????
     17c:	30 48       	sbci	r19, 0x80	; 128
     17e:	48 00       	.word	0x0048	; ????
     180:	30 48       	sbci	r19, 0x80	; 128
     182:	7c 00       	.word	0x007c	; ????
     184:	30 68       	ori	r19, 0x80	; 128
     186:	50 00       	.word	0x0050	; ????
     188:	10 78       	andi	r17, 0x80	; 128
     18a:	14 00       	.word	0x0014	; ????
     18c:	90 a8       	ldd	r9, Z+48	; 0x30
     18e:	78 00       	.word	0x0078	; ????
     190:	7c 08       	sbc	r7, r12
     192:	70 00       	.word	0x0070	; ????
     194:	50 74       	andi	r21, 0x40	; 64
     196:	40 00       	.word	0x0040	; ????
     198:	80 80       	ld	r8, Z
     19a:	74 00       	.word	0x0074	; ????
     19c:	7c 10       	cpse	r7, r12
     19e:	68 00       	.word	0x0068	; ????
     1a0:	44 7c       	andi	r20, 0xC4	; 196
     1a2:	40 00       	.word	0x0040	; ????
     1a4:	78 10       	cpse	r7, r8
     1a6:	78 00       	.word	0x0078	; ????
     1a8:	78 08       	sbc	r7, r8
     1aa:	70 00       	.word	0x0070	; ????
     1ac:	30 48       	sbci	r19, 0x80	; 128
     1ae:	30 00       	.word	0x0030	; ????
     1b0:	f8 28       	or	r15, r8
     1b2:	10 00       	.word	0x0010	; ????
     1b4:	30 48       	sbci	r19, 0x80	; 128
     1b6:	f8 00       	.word	0x00f8	; ????
     1b8:	78 10       	cpse	r7, r8
     1ba:	08 00       	.word	0x0008	; ????
     1bc:	50 58       	subi	r21, 0x80	; 128
     1be:	28 00       	.word	0x0028	; ????
     1c0:	08 3c       	cpi	r16, 0xC8	; 200
     1c2:	48 00       	.word	0x0048	; ????
     1c4:	38 40       	sbci	r19, 0x08	; 8
     1c6:	78 00       	.word	0x0078	; ????
     1c8:	38 40       	sbci	r19, 0x08	; 8
     1ca:	38 00       	.word	0x0038	; ????
     1cc:	78 20       	and	r7, r8
     1ce:	78 00       	.word	0x0078	; ????
     1d0:	48 30       	cpi	r20, 0x08	; 8
     1d2:	48 00       	.word	0x0048	; ????
     1d4:	98 a0       	ldd	r9, Y+32	; 0x20
     1d6:	78 00       	.word	0x0078	; ????
     1d8:	48 68       	ori	r20, 0x88	; 136
     1da:	58 00       	.word	0x0058	; ????
     1dc:	10 78       	andi	r17, 0x80	; 128
     1de:	84 00       	.word	0x0084	; ????
     1e0:	00 7c       	andi	r16, 0xC0	; 192
     1e2:	00 00       	nop
     1e4:	84 78       	andi	r24, 0x84	; 132
     1e6:	10 00       	.word	0x0010	; ????
     1e8:	08 04       	cpc	r0, r8
     1ea:	08 04       	cpc	r0, r8

000001ec <font5>:
     1ec:	00 00 00 00 00 00 00 5f 00 00 00 07 00 07 00 14     ......._........
     1fc:	7f 14 7f 14 24 2a 7f 2a 12 23 13 08 64 62 36 49     ....$*.*.#..db6I
     20c:	55 22 50 00 05 03 00 00 00 1c 22 41 00 00 41 22     U"P......."A..A"
     21c:	1c 00 08 2a 1c 2a 08 08 08 3e 08 08 00 50 30 00     ...*.*...>...P0.
     22c:	00 08 08 08 08 08 00 60 60 00 00 20 10 08 04 02     .......``.. ....
     23c:	3e 51 49 45 3e 00 42 7f 40 00 42 61 51 49 46 21     >QIE>.B.@.BaQIF!
     24c:	41 45 4b 31 18 14 12 7f 10 27 45 45 45 39 3c 4a     AEK1.....'EEE9<J
     25c:	49 49 30 01 71 09 05 03 36 49 49 49 36 06 49 49     II0.q...6III6.II
     26c:	29 1e 00 36 36 00 00 00 56 36 00 00 00 08 14 22     )..66...V6....."
     27c:	41 14 14 14 14 14 41 22 14 08 00 02 01 51 09 06     A.....A".....Q..
     28c:	32 49 79 41 3e 7e 11 11 11 7e 7f 49 49 49 36 3e     2IyA>~...~.III6>
     29c:	41 41 41 22 7f 41 41 22 1c 7f 49 49 49 41 7f 09     AAA".AA"..IIIA..
     2ac:	09 01 01 3e 41 41 51 32 7f 08 08 08 7f 00 41 7f     ...>AAQ2......A.
     2bc:	41 00 20 40 41 3f 01 7f 08 14 22 41 7f 40 40 40     A. @A?...."A.@@@
     2cc:	40 7f 02 04 02 7f 7f 04 08 10 7f 3e 41 41 41 3e     @..........>AAA>
     2dc:	7f 09 09 09 06 3e 41 51 21 5e 7f 09 19 29 46 46     .....>AQ!^...)FF
     2ec:	49 49 49 31 01 01 7f 01 01 3f 40 40 40 3f 1f 20     III1.....?@@@?. 
     2fc:	40 20 1f 7f 20 18 20 7f 63 14 08 14 63 03 04 78     @ .. . .c...c..x
     30c:	04 03 61 51 49 45 43 00 00 7f 41 41 02 04 08 10     ..aQIEC...AA....
     31c:	20 41 41 7f 00 00 04 02 01 02 04 40 40 40 40 40      AA........@@@@@
     32c:	00 01 02 04 00 20 54 54 54 78 7f 48 44 44 38 38     ..... TTTx.HDD88
     33c:	44 44 44 20 38 44 44 48 7f 38 54 54 54 18 08 7e     DDD 8DDH.8TTT..~
     34c:	09 01 02 08 14 54 54 3c 7f 08 04 04 78 00 44 7d     .....TT<....x.D}
     35c:	40 00 20 40 44 3d 00 00 7f 10 28 44 00 41 7f 40     @. @D=....(D.A.@
     36c:	00 7c 04 18 04 78 7c 08 04 04 78 38 44 44 44 38     .|...x|...x8DDD8
     37c:	7c 14 14 14 08 08 14 14 18 7c 7c 08 04 04 08 48     |........||....H
     38c:	54 54 54 20 04 3f 44 40 20 3c 40 40 20 7c 1c 20     TTT .?D@ <@@ |. 
     39c:	40 20 1c 3c 40 30 40 3c 44 28 10 28 44 0c 50 50     @ .<@0@<D(.(D.PP
     3ac:	50 3c 44 64 54 4c 44 00 08 36 41 00 00 00 7f 00     P<DdTLD..6A.....
     3bc:	00 00 41 36 08 00 02 01 03 02 01                    ..A6.......

000003c7 <font8>:
	...
     3cf:	00 06 5f 5f 06 00 00 00 00 07 07 00 07 07 00 00     ..__............
     3df:	14 7f 7f 14 7f 7f 14 00 24 2e 6b 6b 3a 12 00 00     ........$.kk:...
     3ef:	46 66 30 18 0c 66 62 00 30 7a 4f 5d 37 7a 48 00     Ff0..fb.0zO]7zH.
     3ff:	04 07 03 00 00 00 00 00 00 1c 3e 63 41 00 00 00     ..........>cA...
     40f:	00 41 63 3e 1c 00 00 00 08 2a 3e 1c 1c 3e 2a 08     .Ac>.....*>..>*.
     41f:	08 08 3e 3e 08 08 00 00 00 a0 e0 60 00 00 00 00     ..>>.......`....
     42f:	08 08 08 08 08 08 00 00 00 00 60 60 00 00 00 00     ..........``....
     43f:	60 30 18 0c 06 03 01 00 3e 7f 59 4d 7f 3e 00 00     `0......>.YM.>..
     44f:	42 42 7f 7f 40 40 00 00 62 73 59 49 6f 66 00 00     BB..@@..bsYIof..
     45f:	22 63 49 49 7f 36 00 00 18 1c 16 13 7f 7f 10 00     "cII.6..........
     46f:	27 67 45 45 7d 39 00 00 3c 7e 4b 49 79 30 00 00     'gEE}9..<~KIy0..
     47f:	03 63 71 19 0f 07 00 00 36 7f 49 49 7f 36 00 00     .cq.....6.II.6..
     48f:	06 4f 49 69 3f 1e 00 00 00 00 6c 6c 00 00 00 00     .OIi?.....ll....
     49f:	00 a0 ec 6c 00 00 00 00 08 1c 36 63 41 00 00 00     ...l......6cA...
     4af:	14 14 14 14 14 14 00 00 00 41 63 36 1c 08 00 00     .........Ac6....
     4bf:	02 03 51 59 0f 06 00 00 3e 7f 41 5d 5d 1f 1e 00     ..QY....>.A]]...
     4cf:	7c 7e 13 13 7e 7c 00 00 41 7f 7f 49 49 7f 36 00     |~..~|..A..II.6.
     4df:	1c 3e 63 41 41 63 22 00 41 7f 7f 41 63 7f 1c 00     .>cAAc".A..Ac...
     4ef:	41 7f 7f 49 5d 41 63 00 41 7f 7f 49 1d 01 03 00     A..I]Ac.A..I....
     4ff:	1c 3e 63 41 51 73 72 00 7f 7f 08 08 7f 7f 00 00     .>cAQsr.........
     50f:	00 41 7f 7f 41 00 00 00 30 70 40 41 7f 3f 01 00     .A..A...0p@A.?..
     51f:	41 7f 7f 08 1c 77 63 00 41 7f 7f 41 40 60 70 00     A....wc.A..A@`p.
     52f:	7f 7f 06 0c 06 7f 7f 00 7f 7f 06 0c 18 7f 7f 00     ................
     53f:	1c 3e 63 41 63 3e 1c 00 41 7f 7f 49 09 0f 06 00     .>cAc>..A..I....
     54f:	1e 3f 21 71 7f 5e 00 00 41 7f 7f 19 39 6f 46 00     .?!q.^..A...9oF.
     55f:	26 67 4d 59 7b 32 00 00 03 41 7f 7f 41 03 00 00     &gMY{2...A..A...
     56f:	7f 7f 40 40 7f 7f 00 00 1f 3f 60 60 3f 1f 00 00     ..@@.....?``?...
     57f:	7f 7f 30 18 30 7f 7f 00 63 77 1c 08 1c 77 63 00     ..0.0...cw...wc.
     58f:	07 4f 78 78 4f 07 00 00 67 73 59 4d 47 63 71 00     .OxxO...gsYMGcq.
     59f:	00 7f 7f 41 41 00 00 00 01 03 06 0c 18 30 60 00     ...AA........0`.
     5af:	00 41 41 7f 7f 00 00 00 08 0c 06 03 06 0c 08 00     .AA.............
     5bf:	80 80 80 80 80 80 80 80 00 00 03 07 04 00 00 00     ................
     5cf:	20 74 54 54 3c 78 40 00 41 3f 7f 44 44 7c 38 00      tTT<x@.A?.DD|8.
     5df:	38 7c 44 44 6c 28 00 00 30 78 48 49 3f 7f 40 00     8|DDl(..0xHI?.@.
     5ef:	38 7c 54 54 5c 18 00 00 48 7e 7f 49 03 02 00 00     8|TT\...H~.I....
     5ff:	98 bc a4 a4 f8 7c 04 00 41 7f 7f 08 04 7c 78 00     .....|..A....|x.
     60f:	00 44 7d 7d 40 00 00 00 40 c4 84 fd 7d 00 00 00     .D}}@...@...}...
     61f:	41 7f 7f 10 38 6c 44 00 00 41 7f 7f 40 00 00 00     A...8lD..A..@...
     62f:	7c 7c 0c 18 0c 7c 78 00 7c 7c 04 04 7c 78 00 00     ||...|x.||..|x..
     63f:	38 7c 44 44 7c 38 00 00 84 fc f8 a4 24 3c 18 00     8|DD|8......$<..
     64f:	18 3c 24 a4 f8 fc 84 00 44 7c 78 44 1c 18 00 00     .<$.....D|xD....
     65f:	48 5c 54 54 74 24 00 00 00 04 3e 7f 44 24 00 00     H\TTt$....>.D$..
     66f:	3c 7c 40 40 3c 7c 40 00 1c 3c 60 60 3c 1c 00 00     <|@@<|@..<``<...
     67f:	3c 7c 60 30 60 7c 3c 00 44 6c 38 10 38 6c 44 00     <|`0`|<.Dl8.8lD.
     68f:	9c bc a0 a0 fc 7c 00 00 4c 64 74 5c 4c 64 00 00     .....|..Ldt\Ld..
     69f:	08 08 3e 77 41 41 00 00 00 00 00 77 77 00 00 00     ..>wAA.....ww...
     6af:	41 41 77 3e 08 08 00 00 02 03 01 03 02 03 01 00     AAw>............
	...

000006c0 <__ctors_end>:
     6c0:	11 24       	eor	r1, r1
     6c2:	1f be       	out	0x3f, r1	; 63
     6c4:	cf ef       	ldi	r28, 0xFF	; 255
     6c6:	d4 e0       	ldi	r29, 0x04	; 4
     6c8:	de bf       	out	0x3e, r29	; 62
     6ca:	cd bf       	out	0x3d, r28	; 61

000006cc <__do_copy_data>:
     6cc:	12 e0       	ldi	r17, 0x02	; 2
     6ce:	a0 e0       	ldi	r26, 0x00	; 0
     6d0:	b1 e0       	ldi	r27, 0x01	; 1
     6d2:	ec ed       	ldi	r30, 0xDC	; 220
     6d4:	f8 e1       	ldi	r31, 0x18	; 24
     6d6:	02 c0       	rjmp	.+4      	; 0x6dc <__do_copy_data+0x10>
     6d8:	05 90       	lpm	r0, Z+
     6da:	0d 92       	st	X+, r0
     6dc:	a2 3a       	cpi	r26, 0xA2	; 162
     6de:	b1 07       	cpc	r27, r17
     6e0:	d9 f7       	brne	.-10     	; 0x6d8 <__do_copy_data+0xc>

000006e2 <__do_clear_bss>:
     6e2:	23 e0       	ldi	r18, 0x03	; 3
     6e4:	a2 ea       	ldi	r26, 0xA2	; 162
     6e6:	b2 e0       	ldi	r27, 0x02	; 2
     6e8:	01 c0       	rjmp	.+2      	; 0x6ec <.do_clear_bss_start>

000006ea <.do_clear_bss_loop>:
     6ea:	1d 92       	st	X+, r1

000006ec <.do_clear_bss_start>:
     6ec:	a5 34       	cpi	r26, 0x45	; 69
     6ee:	b2 07       	cpc	r27, r18
     6f0:	e1 f7       	brne	.-8      	; 0x6ea <.do_clear_bss_loop>
     6f2:	0e 94 c1 04 	call	0x982	; 0x982 <main>
     6f6:	0c 94 6c 0c 	jmp	0x18d8	; 0x18d8 <_exit>

000006fa <__bad_interrupt>:
     6fa:	0c 94 00 00 	jmp	0	; 0x0 <__vectors>

000006fe <adc_init>:
#include <avr/io.h>


void adc_init(){
	// Set pin as output
	DDRD |= (1<<DDD4);
     6fe:	81 b3       	in	r24, 0x11	; 17
     700:	80 61       	ori	r24, 0x10	; 16
     702:	81 bb       	out	0x11, r24	; 17
	
	// Toggle output pin on compare match with counter
	TCCR3A = (1<<COM3A0);
     704:	80 e4       	ldi	r24, 0x40	; 64
     706:	80 93 8b 00 	sts	0x008B, r24	; 0x80008b <__TEXT_REGION_LENGTH__+0x7fc08b>
	
	// No clock prescaling on counter (i.e. update every clock cycle)
	// Set counter mode to CTC (clear on match)
	TCCR3B = (1<<WGM32)|(1<<CS30);
     70a:	89 e0       	ldi	r24, 0x09	; 9
     70c:	80 93 8a 00 	sts	0x008A, r24	; 0x80008a <__TEXT_REGION_LENGTH__+0x7fc08a>
	
	// Value to be matched (0 = toggle output each cycle)
	OCR3A = 0;
     710:	10 92 87 00 	sts	0x0087, r1	; 0x800087 <__TEXT_REGION_LENGTH__+0x7fc087>
     714:	10 92 86 00 	sts	0x0086, r1	; 0x800086 <__TEXT_REGION_LENGTH__+0x7fc086>
     718:	08 95       	ret

0000071a <adc_read>:
		uint8_t digitalVal = 0;
		
		// Write anything to the ADC to trigger a conversion
		// Triggers the chip select and write control strobe when external memory interface is active
		volatile char* mem_adc = (char *) DEF_ADR_ADC;
		mem_adc[0] = 0;
     71a:	10 92 00 14 	sts	0x1400, r1	; 0x801400 <__bss_end+0x10bb>
	#else
		//round up by default
		__ticks_dc = (uint32_t)(ceil(fabs(__tmp)));
	#endif

	__builtin_avr_delay_cycles(__ticks_dc);
     71e:	97 e2       	ldi	r25, 0x27	; 39
     720:	9a 95       	dec	r25
     722:	f1 f7       	brne	.-4      	; 0x720 <adc_read+0x6>
     724:	00 00       	nop
		uint16_t convTime = DEF_ADC_CONV_TIME;
		_delay_us(convTime);
		//_delay_ms(convTime);

		// Read requested channel
		if (channel <= DEF_ADC_CHANNELS){ // Returns 0 if channel number is invalid
     726:	85 30       	cpi	r24, 0x05	; 5
     728:	40 f0       	brcs	.+16     	; 0x73a <adc_read+0x20>
}


volatile uint8_t adc_read(uint8_t channel){
		// Set up return data
		uint8_t digitalVal = 0;
     72a:	90 e0       	ldi	r25, 0x00	; 0
     72c:	0e c0       	rjmp	.+28     	; 0x74a <adc_read+0x30>
		//_delay_ms(convTime);

		// Read requested channel
		if (channel <= DEF_ADC_CHANNELS){ // Returns 0 if channel number is invalid
			for (int i = 0; i <= channel; ++i){
				digitalVal = mem_adc[i];
     72e:	f9 01       	movw	r30, r18
     730:	fc 5e       	subi	r31, 0xEC	; 236
     732:	90 81       	ld	r25, Z
		_delay_us(convTime);
		//_delay_ms(convTime);

		// Read requested channel
		if (channel <= DEF_ADC_CHANNELS){ // Returns 0 if channel number is invalid
			for (int i = 0; i <= channel; ++i){
     734:	2f 5f       	subi	r18, 0xFF	; 255
     736:	3f 4f       	sbci	r19, 0xFF	; 255
     738:	03 c0       	rjmp	.+6      	; 0x740 <adc_read+0x26>
     73a:	20 e0       	ldi	r18, 0x00	; 0
     73c:	30 e0       	ldi	r19, 0x00	; 0
     73e:	90 e0       	ldi	r25, 0x00	; 0
     740:	48 2f       	mov	r20, r24
     742:	50 e0       	ldi	r21, 0x00	; 0
     744:	42 17       	cp	r20, r18
     746:	53 07       	cpc	r21, r19
     748:	94 f7       	brge	.-28     	; 0x72e <adc_read+0x14>
				digitalVal = mem_adc[i];
			}
		}
		return digitalVal;
     74a:	89 2f       	mov	r24, r25
     74c:	08 95       	ret

0000074e <can_init>:
	msg->len = mcp2515_read(MCP_RXB0DLC);		// Read message length
	for (int i = 0; i<msg->len; i++){
		msg->data[i] = mcp2515_read(MCP_RXB0D0 + i);
	}
	mcp2515_bit_modify(MCP_CANINTF, 0b00000001, 0); // Reset receive buffer
}
     74e:	0e 94 a4 05 	call	0xb48	; 0xb48 <mcp2515_init>
     752:	08 95       	ret

00000754 <can_send>:

/*
* Send a CAN message via MCP2515
* @param	msg		CAN message to send
*/
void can_send(CanMsg* msg){
     754:	0f 93       	push	r16
     756:	1f 93       	push	r17
     758:	cf 93       	push	r28
     75a:	df 93       	push	r29
     75c:	8c 01       	movw	r16, r24
	mcp2515_write(TXB0SIDH, msg->id>>3);	// Write top 8 bits of ID
     75e:	fc 01       	movw	r30, r24
     760:	60 81       	ld	r22, Z
     762:	71 81       	ldd	r23, Z+1	; 0x01
     764:	76 95       	lsr	r23
     766:	67 95       	ror	r22
     768:	76 95       	lsr	r23
     76a:	67 95       	ror	r22
     76c:	76 95       	lsr	r23
     76e:	67 95       	ror	r22
     770:	81 e3       	ldi	r24, 0x31	; 49
     772:	0e 94 59 05 	call	0xab2	; 0xab2 <mcp2515_write>
	mcp2515_write(TXB0SIDL, msg->id<<5);	// Write bottom 3 bits of ID (to MSb of register)
     776:	f8 01       	movw	r30, r16
     778:	60 81       	ld	r22, Z
     77a:	62 95       	swap	r22
     77c:	66 0f       	add	r22, r22
     77e:	60 7e       	andi	r22, 0xE0	; 224
     780:	82 e3       	ldi	r24, 0x32	; 50
     782:	0e 94 59 05 	call	0xab2	; 0xab2 <mcp2515_write>
	mcp2515_write(TXB0DLC, msg->len);		// Write length of message
     786:	f8 01       	movw	r30, r16
     788:	62 81       	ldd	r22, Z+2	; 0x02
     78a:	85 e3       	ldi	r24, 0x35	; 53
     78c:	0e 94 59 05 	call	0xab2	; 0xab2 <mcp2515_write>
	for(int i=0; i<msg->len; i++){
     790:	c0 e0       	ldi	r28, 0x00	; 0
     792:	d0 e0       	ldi	r29, 0x00	; 0
     794:	09 c0       	rjmp	.+18     	; 0x7a8 <can_send+0x54>
		mcp2515_write(TXB0D0 + i, msg->data[i]);
     796:	f8 01       	movw	r30, r16
     798:	ec 0f       	add	r30, r28
     79a:	fd 1f       	adc	r31, r29
     79c:	63 81       	ldd	r22, Z+3	; 0x03
     79e:	8c 2f       	mov	r24, r28
     7a0:	8a 5c       	subi	r24, 0xCA	; 202
     7a2:	0e 94 59 05 	call	0xab2	; 0xab2 <mcp2515_write>
*/
void can_send(CanMsg* msg){
	mcp2515_write(TXB0SIDH, msg->id>>3);	// Write top 8 bits of ID
	mcp2515_write(TXB0SIDL, msg->id<<5);	// Write bottom 3 bits of ID (to MSb of register)
	mcp2515_write(TXB0DLC, msg->len);		// Write length of message
	for(int i=0; i<msg->len; i++){
     7a6:	21 96       	adiw	r28, 0x01	; 1
     7a8:	f8 01       	movw	r30, r16
     7aa:	82 81       	ldd	r24, Z+2	; 0x02
     7ac:	90 e0       	ldi	r25, 0x00	; 0
     7ae:	c8 17       	cp	r28, r24
     7b0:	d9 07       	cpc	r29, r25
     7b2:	8c f3       	brlt	.-30     	; 0x796 <can_send+0x42>
		mcp2515_write(TXB0D0 + i, msg->data[i]);
	}
	mcp2515_request_to_send(MCP_RTS_TX0); // Request to send via transmit buffer 0
     7b4:	81 e8       	ldi	r24, 0x81	; 129
     7b6:	90 e0       	ldi	r25, 0x00	; 0
     7b8:	0e 94 6f 05 	call	0xade	; 0xade <mcp2515_request_to_send>
}
     7bc:	df 91       	pop	r29
     7be:	cf 91       	pop	r28
     7c0:	1f 91       	pop	r17
     7c2:	0f 91       	pop	r16
     7c4:	08 95       	ret

000007c6 <gamepad_init>:
#include "adc.h"
#include "gamepad.h"


void gamepad_init(){
	PORTB |= (1 << PB2); // Set pullup resistor for input
     7c6:	88 b3       	in	r24, 0x18	; 24
     7c8:	84 60       	ori	r24, 0x04	; 4
     7ca:	88 bb       	out	0x18, r24	; 24
	DDRB &= ~(0 << DDB2); // Set PB2 to 0 (input for joystick button)
     7cc:	87 b3       	in	r24, 0x17	; 23
     7ce:	87 bb       	out	0x17, r24	; 23
     7d0:	08 95       	ret

000007d2 <read_gamepad>:
}

Gamepad read_gamepad(){
     7d2:	cf 93       	push	r28
     7d4:	df 93       	push	r29
     7d6:	ec 01       	movw	r28, r24
	Gamepad gp;
	gp.pos_x = (int16_t)adc_read(CH_JOYSTICK_X);
     7d8:	80 e0       	ldi	r24, 0x00	; 0
     7da:	0e 94 8d 03 	call	0x71a	; 0x71a <adc_read>
     7de:	90 e0       	ldi	r25, 0x00	; 0
     7e0:	99 83       	std	Y+1, r25	; 0x01
     7e2:	88 83       	st	Y, r24
	gp.pos_y = (int16_t)adc_read(CH_JOYSTICK_Y);
     7e4:	81 e0       	ldi	r24, 0x01	; 1
     7e6:	0e 94 8d 03 	call	0x71a	; 0x71a <adc_read>
     7ea:	90 e0       	ldi	r25, 0x00	; 0
     7ec:	9b 83       	std	Y+3, r25	; 0x03
     7ee:	8a 83       	std	Y+2, r24	; 0x02
	gp.pos_left = (int16_t)adc_read(CH_SLIDER_LEFT);
     7f0:	82 e0       	ldi	r24, 0x02	; 2
     7f2:	0e 94 8d 03 	call	0x71a	; 0x71a <adc_read>
     7f6:	90 e0       	ldi	r25, 0x00	; 0
     7f8:	9d 83       	std	Y+5, r25	; 0x05
     7fa:	8c 83       	std	Y+4, r24	; 0x04
	gp.pos_right = (int16_t)adc_read(CH_SLIDER_RIGHT);
     7fc:	83 e0       	ldi	r24, 0x03	; 3
     7fe:	0e 94 8d 03 	call	0x71a	; 0x71a <adc_read>
     802:	90 e0       	ldi	r25, 0x00	; 0
     804:	9f 83       	std	Y+7, r25	; 0x07
     806:	8e 83       	std	Y+6, r24	; 0x06
	gp.btn = !((PINB & (1 << PB2)) >> PB2);
     808:	81 e0       	ldi	r24, 0x01	; 1
     80a:	b2 99       	sbic	0x16, 2	; 22
     80c:	80 e0       	ldi	r24, 0x00	; 0
     80e:	88 87       	std	Y+8, r24	; 0x08
	
	// printf("RAW X: %d    -    Y: %d    -    L: %d    -    R: %d\r\n\r\n", gp.pos_x, gp.pos_y, gp.pos_left, gp.pos_right);

	return gp;
}
     810:	ce 01       	movw	r24, r28
     812:	df 91       	pop	r29
     814:	cf 91       	pop	r28
     816:	08 95       	ret

00000818 <calibrate_gamepad>:

Gamepad calibrate_gamepad(Gamepad input){
     818:	ef 92       	push	r14
     81a:	ff 92       	push	r15
     81c:	0f 93       	push	r16
     81e:	1f 93       	push	r17
     820:	cf 93       	push	r28
     822:	df 93       	push	r29
     824:	cd b7       	in	r28, 0x3d	; 61
     826:	de b7       	in	r29, 0x3e	; 62
     828:	2a 97       	sbiw	r28, 0x0a	; 10
     82a:	0f b6       	in	r0, 0x3f	; 63
     82c:	f8 94       	cli
     82e:	de bf       	out	0x3e, r29	; 62
     830:	0f be       	out	0x3f, r0	; 63
     832:	cd bf       	out	0x3d, r28	; 61
     834:	fc 01       	movw	r30, r24
     836:	e9 82       	std	Y+1, r14	; 0x01
     838:	fa 82       	std	Y+2, r15	; 0x02
     83a:	0b 83       	std	Y+3, r16	; 0x03
     83c:	1c 83       	std	Y+4, r17	; 0x04
     83e:	2d 83       	std	Y+5, r18	; 0x05
     840:	3e 83       	std	Y+6, r19	; 0x06
     842:	4f 83       	std	Y+7, r20	; 0x07
     844:	58 87       	std	Y+8, r21	; 0x08
     846:	16 2f       	mov	r17, r22
	Gamepad gp;
	
	gp.pos_x = (input.pos_x - 127) * 100 / 127; // Get direction as a percentage between -100 to +100
     848:	29 81       	ldd	r18, Y+1	; 0x01
     84a:	3a 81       	ldd	r19, Y+2	; 0x02
     84c:	2f 57       	subi	r18, 0x7F	; 127
     84e:	31 09       	sbc	r19, r1
     850:	44 e6       	ldi	r20, 0x64	; 100
     852:	42 9f       	mul	r20, r18
     854:	c0 01       	movw	r24, r0
     856:	43 9f       	mul	r20, r19
     858:	90 0d       	add	r25, r0
     85a:	11 24       	eor	r1, r1
     85c:	2f e7       	ldi	r18, 0x7F	; 127
     85e:	30 e0       	ldi	r19, 0x00	; 0
     860:	b9 01       	movw	r22, r18
     862:	0e 94 a7 07 	call	0xf4e	; 0xf4e <__divmodhi4>
     866:	71 83       	std	Z+1, r23	; 0x01
     868:	60 83       	st	Z, r22
	gp.pos_y = (input.pos_y - 127) * 100 / 127;
     86a:	6b 81       	ldd	r22, Y+3	; 0x03
     86c:	7c 81       	ldd	r23, Y+4	; 0x04
     86e:	6f 57       	subi	r22, 0x7F	; 127
     870:	71 09       	sbc	r23, r1
     872:	46 9f       	mul	r20, r22
     874:	c0 01       	movw	r24, r0
     876:	47 9f       	mul	r20, r23
     878:	90 0d       	add	r25, r0
     87a:	11 24       	eor	r1, r1
     87c:	b9 01       	movw	r22, r18
     87e:	0e 94 a7 07 	call	0xf4e	; 0xf4e <__divmodhi4>
     882:	73 83       	std	Z+3, r23	; 0x03
     884:	62 83       	std	Z+2, r22	; 0x02
	gp.pos_left = (input.pos_left - 127) * 100 / 127;
     886:	6d 81       	ldd	r22, Y+5	; 0x05
     888:	7e 81       	ldd	r23, Y+6	; 0x06
     88a:	6f 57       	subi	r22, 0x7F	; 127
     88c:	71 09       	sbc	r23, r1
     88e:	46 9f       	mul	r20, r22
     890:	c0 01       	movw	r24, r0
     892:	47 9f       	mul	r20, r23
     894:	90 0d       	add	r25, r0
     896:	11 24       	eor	r1, r1
     898:	b9 01       	movw	r22, r18
     89a:	0e 94 a7 07 	call	0xf4e	; 0xf4e <__divmodhi4>
     89e:	75 83       	std	Z+5, r23	; 0x05
     8a0:	64 83       	std	Z+4, r22	; 0x04
	gp.pos_right = (input.pos_right - 127) * 100 / 127;
     8a2:	6f 81       	ldd	r22, Y+7	; 0x07
     8a4:	78 85       	ldd	r23, Y+8	; 0x08
     8a6:	6f 57       	subi	r22, 0x7F	; 127
     8a8:	71 09       	sbc	r23, r1
     8aa:	46 9f       	mul	r20, r22
     8ac:	c0 01       	movw	r24, r0
     8ae:	47 9f       	mul	r20, r23
     8b0:	90 0d       	add	r25, r0
     8b2:	11 24       	eor	r1, r1
     8b4:	b9 01       	movw	r22, r18
     8b6:	0e 94 a7 07 	call	0xf4e	; 0xf4e <__divmodhi4>
     8ba:	77 83       	std	Z+7, r23	; 0x07
     8bc:	66 83       	std	Z+6, r22	; 0x06
	
	gp.btn = input.btn;
     8be:	10 87       	std	Z+8, r17	; 0x08
	
	
	// printf("CAL X: %d    -    Y: %d    -    L: %d    -    R: %d\r\n\r\n", gp.pos_x, gp.pos_y, gp.pos_left, gp.pos_right);
	
	return gp;
}
     8c0:	cf 01       	movw	r24, r30
     8c2:	2a 96       	adiw	r28, 0x0a	; 10
     8c4:	0f b6       	in	r0, 0x3f	; 63
     8c6:	f8 94       	cli
     8c8:	de bf       	out	0x3e, r29	; 62
     8ca:	0f be       	out	0x3f, r0	; 63
     8cc:	cd bf       	out	0x3d, r28	; 61
     8ce:	df 91       	pop	r29
     8d0:	cf 91       	pop	r28
     8d2:	1f 91       	pop	r17
     8d4:	0f 91       	pop	r16
     8d6:	ff 90       	pop	r15
     8d8:	ef 90       	pop	r14
     8da:	08 95       	ret

000008dc <getJoystickDir>:

Dir getJoystickDir(Gamepad gp){
     8dc:	0f 93       	push	r16
     8de:	1f 93       	push	r17
     8e0:	cf 93       	push	r28
     8e2:	df 93       	push	r29
     8e4:	cd b7       	in	r28, 0x3d	; 61
     8e6:	de b7       	in	r29, 0x3e	; 62
     8e8:	2a 97       	sbiw	r28, 0x0a	; 10
     8ea:	0f b6       	in	r0, 0x3f	; 63
     8ec:	f8 94       	cli
     8ee:	de bf       	out	0x3e, r29	; 62
     8f0:	0f be       	out	0x3f, r0	; 63
     8f2:	cd bf       	out	0x3d, r28	; 61
     8f4:	09 83       	std	Y+1, r16	; 0x01
     8f6:	1a 83       	std	Y+2, r17	; 0x02
     8f8:	2b 83       	std	Y+3, r18	; 0x03
     8fa:	3c 83       	std	Y+4, r19	; 0x04
	int16_t deadzone = 40;
	Dir direction = NONE; // Default

	if (gp.pos_x < deadzone && gp.pos_x > -deadzone && gp.pos_y < deadzone && gp.pos_y > -deadzone){
     8fc:	89 81       	ldd	r24, Y+1	; 0x01
     8fe:	9a 81       	ldd	r25, Y+2	; 0x02
     900:	88 32       	cpi	r24, 0x28	; 40
     902:	91 05       	cpc	r25, r1
     904:	64 f4       	brge	.+24     	; 0x91e <getJoystickDir+0x42>
     906:	89 3d       	cpi	r24, 0xD9	; 217
     908:	2f ef       	ldi	r18, 0xFF	; 255
     90a:	92 07       	cpc	r25, r18
     90c:	44 f0       	brlt	.+16     	; 0x91e <getJoystickDir+0x42>
     90e:	2b 81       	ldd	r18, Y+3	; 0x03
     910:	3c 81       	ldd	r19, Y+4	; 0x04
     912:	28 32       	cpi	r18, 0x28	; 40
     914:	31 05       	cpc	r19, r1
     916:	1c f4       	brge	.+6      	; 0x91e <getJoystickDir+0x42>
     918:	29 3d       	cpi	r18, 0xD9	; 217
     91a:	3f 4f       	sbci	r19, 0xFF	; 255
     91c:	04 f5       	brge	.+64     	; 0x95e <getJoystickDir+0x82>
		direction = NONE;

	} else if (abs(gp.pos_x) >= abs(gp.pos_y)){
     91e:	ac 01       	movw	r20, r24
     920:	99 23       	and	r25, r25
     922:	24 f4       	brge	.+8      	; 0x92c <getJoystickDir+0x50>
     924:	44 27       	eor	r20, r20
     926:	55 27       	eor	r21, r21
     928:	48 1b       	sub	r20, r24
     92a:	59 0b       	sbc	r21, r25
     92c:	6b 81       	ldd	r22, Y+3	; 0x03
     92e:	7c 81       	ldd	r23, Y+4	; 0x04
     930:	9b 01       	movw	r18, r22
     932:	77 23       	and	r23, r23
     934:	24 f4       	brge	.+8      	; 0x93e <getJoystickDir+0x62>
     936:	22 27       	eor	r18, r18
     938:	33 27       	eor	r19, r19
     93a:	26 1b       	sub	r18, r22
     93c:	37 0b       	sbc	r19, r23
     93e:	42 17       	cp	r20, r18
     940:	53 07       	cpc	r21, r19
     942:	2c f0       	brlt	.+10     	; 0x94e <getJoystickDir+0x72>
		if (gp.pos_x > 0){
     944:	18 16       	cp	r1, r24
     946:	19 06       	cpc	r1, r25
     948:	64 f4       	brge	.+24     	; 0x962 <getJoystickDir+0x86>
			direction = RIGHT;
     94a:	82 e0       	ldi	r24, 0x02	; 2
     94c:	0f c0       	rjmp	.+30     	; 0x96c <getJoystickDir+0x90>
		} else{
			direction = LEFT;
		}

	} else if (abs(gp.pos_y) > abs(gp.pos_x)){
     94e:	42 17       	cp	r20, r18
     950:	53 07       	cpc	r21, r19
     952:	4c f4       	brge	.+18     	; 0x966 <getJoystickDir+0x8a>
		if (gp.pos_y > 0){
     954:	16 16       	cp	r1, r22
     956:	17 06       	cpc	r1, r23
     958:	44 f4       	brge	.+16     	; 0x96a <getJoystickDir+0x8e>
			direction = UP;
     95a:	83 e0       	ldi	r24, 0x03	; 3
     95c:	07 c0       	rjmp	.+14     	; 0x96c <getJoystickDir+0x90>
Dir getJoystickDir(Gamepad gp){
	int16_t deadzone = 40;
	Dir direction = NONE; // Default

	if (gp.pos_x < deadzone && gp.pos_x > -deadzone && gp.pos_y < deadzone && gp.pos_y > -deadzone){
		direction = NONE;
     95e:	80 e0       	ldi	r24, 0x00	; 0
     960:	05 c0       	rjmp	.+10     	; 0x96c <getJoystickDir+0x90>

	} else if (abs(gp.pos_x) >= abs(gp.pos_y)){
		if (gp.pos_x > 0){
			direction = RIGHT;
		} else{
			direction = LEFT;
     962:	81 e0       	ldi	r24, 0x01	; 1
     964:	03 c0       	rjmp	.+6      	; 0x96c <getJoystickDir+0x90>
	return gp;
}

Dir getJoystickDir(Gamepad gp){
	int16_t deadzone = 40;
	Dir direction = NONE; // Default
     966:	80 e0       	ldi	r24, 0x00	; 0
     968:	01 c0       	rjmp	.+2      	; 0x96c <getJoystickDir+0x90>

	} else if (abs(gp.pos_y) > abs(gp.pos_x)){
		if (gp.pos_y > 0){
			direction = UP;
		}else{
			direction = DOWN;
     96a:	84 e0       	ldi	r24, 0x04	; 4
		}
		}
		
	return direction;
}
     96c:	2a 96       	adiw	r28, 0x0a	; 10
     96e:	0f b6       	in	r0, 0x3f	; 63
     970:	f8 94       	cli
     972:	de bf       	out	0x3e, r29	; 62
     974:	0f be       	out	0x3f, r0	; 63
     976:	cd bf       	out	0x3d, r28	; 61
     978:	df 91       	pop	r29
     97a:	cf 91       	pop	r28
     97c:	1f 91       	pop	r17
     97e:	0f 91       	pop	r16
     980:	08 95       	ret

00000982 <main>:
#include "menu.h"
#include "spi.h"
#include "mcp2515.h"
#include "can.h"

int main(void) {
     982:	cf 93       	push	r28
     984:	df 93       	push	r29
     986:	cd b7       	in	r28, 0x3d	; 61
     988:	de b7       	in	r29, 0x3e	; 62
     98a:	64 97       	sbiw	r28, 0x14	; 20
     98c:	0f b6       	in	r0, 0x3f	; 63
     98e:	f8 94       	cli
     990:	de bf       	out	0x3e, r29	; 62
     992:	0f be       	out	0x3f, r0	; 63
     994:	cd bf       	out	0x3d, r28	; 61
	UART_init(DEF_UBBR);
     996:	8f e1       	ldi	r24, 0x1F	; 31
     998:	90 e0       	ldi	r25, 0x00	; 0
     99a:	0e 94 9a 07 	call	0xf34	; 0xf34 <UART_init>
	SRAM_init();
     99e:	0e 94 89 07 	call	0xf12	; 0xf12 <SRAM_init>
	adc_init();
     9a2:	0e 94 7f 03 	call	0x6fe	; 0x6fe <adc_init>
	gamepad_init();
     9a6:	0e 94 e3 03 	call	0x7c6	; 0x7c6 <gamepad_init>
	oled_init();
     9aa:	0e 94 95 06 	call	0xd2a	; 0xd2a <oled_init>
	oled_reset();
     9ae:	0e 94 05 07 	call	0xe0a	; 0xe0a <oled_reset>
	menu_init();
     9b2:	0e 94 20 06 	call	0xc40	; 0xc40 <menu_init>

	can_init();
     9b6:	0e 94 a7 03 	call	0x74e	; 0x74e <can_init>
	
	while(1){
		// =================================================
		// Read gamepad inputs
		
		gp = read_gamepad();
     9ba:	ce 01       	movw	r24, r28
     9bc:	01 96       	adiw	r24, 0x01	; 1
     9be:	0e 94 e9 03 	call	0x7d2	; 0x7d2 <read_gamepad>
		gp = calibrate_gamepad(gp);
     9c2:	e9 80       	ldd	r14, Y+1	; 0x01
     9c4:	fa 80       	ldd	r15, Y+2	; 0x02
     9c6:	0b 81       	ldd	r16, Y+3	; 0x03
     9c8:	1c 81       	ldd	r17, Y+4	; 0x04
     9ca:	2d 81       	ldd	r18, Y+5	; 0x05
     9cc:	3e 81       	ldd	r19, Y+6	; 0x06
     9ce:	4f 81       	ldd	r20, Y+7	; 0x07
     9d0:	58 85       	ldd	r21, Y+8	; 0x08
     9d2:	69 85       	ldd	r22, Y+9	; 0x09
     9d4:	7a 85       	ldd	r23, Y+10	; 0x0a
     9d6:	ce 01       	movw	r24, r28
     9d8:	0b 96       	adiw	r24, 0x0b	; 11
     9da:	0e 94 0c 04 	call	0x818	; 0x818 <calibrate_gamepad>
     9de:	8a e0       	ldi	r24, 0x0A	; 10
     9e0:	fe 01       	movw	r30, r28
     9e2:	3b 96       	adiw	r30, 0x0b	; 11
     9e4:	de 01       	movw	r26, r28
     9e6:	11 96       	adiw	r26, 0x01	; 1
     9e8:	01 90       	ld	r0, Z+
     9ea:	0d 92       	st	X+, r0
     9ec:	8a 95       	dec	r24
     9ee:	e1 f7       	brne	.-8      	; 0x9e8 <main+0x66>
		new_gp_dir = getJoystickDir(gp);
     9f0:	09 81       	ldd	r16, Y+1	; 0x01
     9f2:	1a 81       	ldd	r17, Y+2	; 0x02
     9f4:	2b 81       	ldd	r18, Y+3	; 0x03
     9f6:	3c 81       	ldd	r19, Y+4	; 0x04
     9f8:	4d 81       	ldd	r20, Y+5	; 0x05
     9fa:	5e 81       	ldd	r21, Y+6	; 0x06
     9fc:	6f 81       	ldd	r22, Y+7	; 0x07
     9fe:	78 85       	ldd	r23, Y+8	; 0x08
     a00:	89 85       	ldd	r24, Y+9	; 0x09
     a02:	9a 85       	ldd	r25, Y+10	; 0x0a
     a04:	0e 94 6e 04 	call	0x8dc	; 0x8dc <getJoystickDir>
     a08:	f8 2e       	mov	r15, r24
		
		
		// =================================================
		// Display menu on OLED
		
		oled_reset();
     a0a:	0e 94 05 07 	call	0xe0a	; 0xe0a <oled_reset>
		if (new_gp_dir == UP && prev_gp_dir != UP ){
     a0e:	83 e0       	ldi	r24, 0x03	; 3
     a10:	f8 12       	cpse	r15, r24
     a12:	06 c0       	rjmp	.+12     	; 0xa20 <main+0x9e>
     a14:	d8 16       	cp	r13, r24
     a16:	21 f0       	breq	.+8      	; 0xa20 <main+0x9e>
			menu_moveCursor(-1);
     a18:	8f ef       	ldi	r24, 0xFF	; 255
     a1a:	0e 94 89 06 	call	0xd12	; 0xd12 <menu_moveCursor>
     a1e:	08 c0       	rjmp	.+16     	; 0xa30 <main+0xae>
		}
		else if (new_gp_dir == DOWN && prev_gp_dir != DOWN ){
     a20:	94 e0       	ldi	r25, 0x04	; 4
     a22:	f9 12       	cpse	r15, r25
     a24:	05 c0       	rjmp	.+10     	; 0xa30 <main+0xae>
     a26:	d9 16       	cp	r13, r25
     a28:	19 f0       	breq	.+6      	; 0xa30 <main+0xae>
			menu_moveCursor(1);
     a2a:	81 e0       	ldi	r24, 0x01	; 1
     a2c:	0e 94 89 06 	call	0xd12	; 0xd12 <menu_moveCursor>
		}
		if(gp.btn){
     a30:	89 85       	ldd	r24, Y+9	; 0x09
     a32:	81 11       	cpse	r24, r1
			menu_selectPage();
     a34:	0e 94 62 06 	call	0xcc4	; 0xcc4 <menu_selectPage>

		
		// =================================================
		// Test CAN communication with node 2
		CanMsg* msgOut;
		msgOut->id = 0xA5;
     a38:	00 e0       	ldi	r16, 0x00	; 0
     a3a:	10 e0       	ldi	r17, 0x00	; 0
     a3c:	85 ea       	ldi	r24, 0xA5	; 165
     a3e:	90 e0       	ldi	r25, 0x00	; 0
     a40:	f8 01       	movw	r30, r16
     a42:	91 83       	std	Z+1, r25	; 0x01
     a44:	80 83       	st	Z, r24
		msgOut->len = 2;
     a46:	82 e0       	ldi	r24, 0x02	; 2
     a48:	82 83       	std	Z+2, r24	; 0x02
		msgOut->data[0] = gp.pos_x;
     a4a:	89 81       	ldd	r24, Y+1	; 0x01
     a4c:	83 83       	std	Z+3, r24	; 0x03
		msgOut->data[1] = gp.pos_y;
     a4e:	8b 81       	ldd	r24, Y+3	; 0x03
     a50:	84 83       	std	Z+4, r24	; 0x04
		can_send(msgOut);
     a52:	c8 01       	movw	r24, r16
     a54:	0e 94 aa 03 	call	0x754	; 0x754 <can_send>
		printf("Sent: ID: %02X    -    Len: %02X    -    Dat: %02X %02X \r\n\r\n", msgOut->id, msgOut->len, msgOut->data[0], msgOut->data[1]);
     a58:	f8 01       	movw	r30, r16
     a5a:	24 81       	ldd	r18, Z+4	; 0x04
     a5c:	93 81       	ldd	r25, Z+3	; 0x03
     a5e:	82 81       	ldd	r24, Z+2	; 0x02
     a60:	1f 92       	push	r1
     a62:	2f 93       	push	r18
     a64:	1f 92       	push	r1
     a66:	9f 93       	push	r25
     a68:	1f 92       	push	r1
     a6a:	8f 93       	push	r24
     a6c:	81 81       	ldd	r24, Z+1	; 0x01
     a6e:	8f 93       	push	r24
     a70:	80 81       	ld	r24, Z
     a72:	8f 93       	push	r24
     a74:	86 e0       	ldi	r24, 0x06	; 6
     a76:	91 e0       	ldi	r25, 0x01	; 1
     a78:	9f 93       	push	r25
     a7a:	8f 93       	push	r24
     a7c:	0e 94 1a 08 	call	0x1034	; 0x1034 <printf>
		uint8_t recVal = msgIn->data[0];
		uint8_t recSize = msgIn->len;
		printf("Recv: ID: %02X    -    Len: %02X    -    Dat: %d %d \r\n\r\n", msgIn->id, msgIn->len, msgIn->data[0], msgIn->data[1]);
		*/

	}
     a80:	0f b6       	in	r0, 0x3f	; 63
     a82:	f8 94       	cli
     a84:	de bf       	out	0x3e, r29	; 62
     a86:	0f be       	out	0x3f, r0	; 63
     a88:	cd bf       	out	0x3d, r28	; 61
			menu_moveCursor(1);
		}
		if(gp.btn){
			menu_selectPage();
		}
		prev_gp_dir = new_gp_dir;
     a8a:	df 2c       	mov	r13, r15
		uint8_t recVal = msgIn->data[0];
		uint8_t recSize = msgIn->len;
		printf("Recv: ID: %02X    -    Len: %02X    -    Dat: %d %d \r\n\r\n", msgIn->id, msgIn->len, msgIn->data[0], msgIn->data[1]);
		*/

	}
     a8c:	96 cf       	rjmp	.-212    	; 0x9ba <main+0x38>

00000a8e <mcp2515_read>:
		printf("MCP2515 Entered loopback mode B-)\r\n");
	}
}


uint8_t mcp2515_read(uint8_t adr){
     a8e:	cf 93       	push	r28
     a90:	c8 2f       	mov	r28, r24
	DEF_CAN_CS_ON;
     a92:	88 b3       	in	r24, 0x18	; 24
     a94:	8f 7e       	andi	r24, 0xEF	; 239
     a96:	88 bb       	out	0x18, r24	; 24
	spi_send(MCP_READ);
     a98:	83 e0       	ldi	r24, 0x03	; 3
     a9a:	0e 94 80 07 	call	0xf00	; 0xf00 <spi_send>
	spi_send(adr);
     a9e:	8c 2f       	mov	r24, r28
     aa0:	0e 94 80 07 	call	0xf00	; 0xf00 <spi_send>
	uint8_t result = spi_recv();
     aa4:	0e 94 84 07 	call	0xf08	; 0xf08 <spi_recv>
	DEF_CAN_CS_OFF;
     aa8:	98 b3       	in	r25, 0x18	; 24
     aaa:	90 61       	ori	r25, 0x10	; 16
     aac:	98 bb       	out	0x18, r25	; 24
	return result ;
}
     aae:	cf 91       	pop	r28
     ab0:	08 95       	ret

00000ab2 <mcp2515_write>:


void mcp2515_write(uint8_t adr, uint8_t data){
     ab2:	cf 93       	push	r28
     ab4:	df 93       	push	r29
     ab6:	d8 2f       	mov	r29, r24
     ab8:	c6 2f       	mov	r28, r22
	DEF_CAN_CS_ON;
     aba:	88 b3       	in	r24, 0x18	; 24
     abc:	8f 7e       	andi	r24, 0xEF	; 239
     abe:	88 bb       	out	0x18, r24	; 24
	spi_send( MCP_WRITE );
     ac0:	82 e0       	ldi	r24, 0x02	; 2
     ac2:	0e 94 80 07 	call	0xf00	; 0xf00 <spi_send>
	spi_send( adr );
     ac6:	8d 2f       	mov	r24, r29
     ac8:	0e 94 80 07 	call	0xf00	; 0xf00 <spi_send>
	spi_send( data );
     acc:	8c 2f       	mov	r24, r28
     ace:	0e 94 80 07 	call	0xf00	; 0xf00 <spi_send>
	DEF_CAN_CS_OFF;
     ad2:	88 b3       	in	r24, 0x18	; 24
     ad4:	80 61       	ori	r24, 0x10	; 16
     ad6:	88 bb       	out	0x18, r24	; 24
}
     ad8:	df 91       	pop	r29
     ada:	cf 91       	pop	r28
     adc:	08 95       	ret

00000ade <mcp2515_request_to_send>:


void mcp2515_request_to_send(uint8_t buffer){
	DEF_CAN_CS_ON;
     ade:	98 b3       	in	r25, 0x18	; 24
     ae0:	9f 7e       	andi	r25, 0xEF	; 239
     ae2:	98 bb       	out	0x18, r25	; 24
	spi_send(buffer);
     ae4:	0e 94 80 07 	call	0xf00	; 0xf00 <spi_send>
	DEF_CAN_CS_OFF;
     ae8:	88 b3       	in	r24, 0x18	; 24
     aea:	80 61       	ori	r24, 0x10	; 16
     aec:	88 bb       	out	0x18, r24	; 24
     aee:	08 95       	ret

00000af0 <mcp2515_bit_modify>:
}


void mcp2515_bit_modify(uint8_t adr, uint8_t mask, uint8_t data){
     af0:	1f 93       	push	r17
     af2:	cf 93       	push	r28
     af4:	df 93       	push	r29
     af6:	18 2f       	mov	r17, r24
     af8:	d6 2f       	mov	r29, r22
     afa:	c4 2f       	mov	r28, r20
	DEF_CAN_CS_ON;
     afc:	88 b3       	in	r24, 0x18	; 24
     afe:	8f 7e       	andi	r24, 0xEF	; 239
     b00:	88 bb       	out	0x18, r24	; 24
	spi_send(MCP_BITMOD); 
     b02:	85 e0       	ldi	r24, 0x05	; 5
     b04:	0e 94 80 07 	call	0xf00	; 0xf00 <spi_send>
	spi_send(adr);
     b08:	81 2f       	mov	r24, r17
     b0a:	0e 94 80 07 	call	0xf00	; 0xf00 <spi_send>
	spi_send(mask);
     b0e:	8d 2f       	mov	r24, r29
     b10:	0e 94 80 07 	call	0xf00	; 0xf00 <spi_send>
	spi_send(data);
     b14:	8c 2f       	mov	r24, r28
     b16:	0e 94 80 07 	call	0xf00	; 0xf00 <spi_send>
	DEF_CAN_CS_OFF;
     b1a:	88 b3       	in	r24, 0x18	; 24
     b1c:	80 61       	ori	r24, 0x10	; 16
     b1e:	88 bb       	out	0x18, r24	; 24
}
     b20:	df 91       	pop	r29
     b22:	cf 91       	pop	r28
     b24:	1f 91       	pop	r17
     b26:	08 95       	ret

00000b28 <mcp2515_reset>:


void mcp2515_reset(){
	DEF_CAN_CS_ON;
     b28:	88 b3       	in	r24, 0x18	; 24
     b2a:	8f 7e       	andi	r24, 0xEF	; 239
     b2c:	88 bb       	out	0x18, r24	; 24
	spi_send(MCP_RESET);
     b2e:	80 ec       	ldi	r24, 0xC0	; 192
     b30:	0e 94 80 07 	call	0xf00	; 0xf00 <spi_send>
	DEF_CAN_CS_OFF;
     b34:	88 b3       	in	r24, 0x18	; 24
     b36:	80 61       	ori	r24, 0x10	; 16
     b38:	88 bb       	out	0x18, r24	; 24
	#else
		//round up by default
		__ticks_dc = (uint32_t)(ceil(fabs(__tmp)));
	#endif

	__builtin_avr_delay_cycles(__ticks_dc);
     b3a:	83 ec       	ldi	r24, 0xC3	; 195
     b3c:	99 e0       	ldi	r25, 0x09	; 9
     b3e:	01 97       	sbiw	r24, 0x01	; 1
     b40:	f1 f7       	brne	.-4      	; 0xb3e <mcp2515_reset+0x16>
     b42:	00 c0       	rjmp	.+0      	; 0xb44 <mcp2515_reset+0x1c>
     b44:	00 00       	nop
     b46:	08 95       	ret

00000b48 <mcp2515_init>:
#define PS1 //TODO					// *TQ - Positive time compensation for edge phase errors 
#define PS2 //TODO					// *TQ - Negative time compensation for edge phase errors


void mcp2515_init(){
	spi_init();
     b48:	0e 94 7a 07 	call	0xef4	; 0xef4 <spi_init>
	// Set chip select pin as output, then keep it inactive (pin low)
	DEF_CAN_CS_ENABLE;
     b4c:	87 b3       	in	r24, 0x17	; 23
     b4e:	80 61       	ori	r24, 0x10	; 16
     b50:	87 bb       	out	0x17, r24	; 23
	DEF_CAN_CS_OFF;
     b52:	88 b3       	in	r24, 0x18	; 24
     b54:	80 61       	ori	r24, 0x10	; 16
     b56:	88 bb       	out	0x18, r24	; 24
	
	mcp2515_reset();
     b58:	0e 94 94 05 	call	0xb28	; 0xb28 <mcp2515_reset>
	uint8_t mode = mcp2515_read(MCP_CANSTAT);
     b5c:	8e e0       	ldi	r24, 0x0E	; 14
     b5e:	0e 94 47 05 	call	0xa8e	; 0xa8e <mcp2515_read>
	mode = mcp2515_read(MCP_CANSTAT);
     b62:	8e e0       	ldi	r24, 0x0E	; 14
     b64:	0e 94 47 05 	call	0xa8e	; 0xa8e <mcp2515_read>
	if ((mode & MODE_MASK) != MODE_CONFIG){
     b68:	98 2f       	mov	r25, r24
     b6a:	90 7e       	andi	r25, 0xE0	; 224
     b6c:	90 38       	cpi	r25, 0x80	; 128
     b6e:	69 f0       	breq	.+26     	; 0xb8a <mcp2515_init+0x42>
		printf ("ERROR %02X: MCP2515 is NOT in config mode after reset!\r\n", mode);
     b70:	1f 92       	push	r1
     b72:	8f 93       	push	r24
     b74:	85 ea       	ldi	r24, 0xA5	; 165
     b76:	91 e0       	ldi	r25, 0x01	; 1
     b78:	9f 93       	push	r25
     b7a:	8f 93       	push	r24
     b7c:	0e 94 1a 08 	call	0x1034	; 0x1034 <printf>
     b80:	0f 90       	pop	r0
     b82:	0f 90       	pop	r0
     b84:	0f 90       	pop	r0
     b86:	0f 90       	pop	r0
     b88:	04 c0       	rjmp	.+8      	; 0xb92 <mcp2515_init+0x4a>
	}else{
	printf("MCP2515 entered config mode\r\n");
     b8a:	83 e4       	ldi	r24, 0x43	; 67
     b8c:	91 e0       	ldi	r25, 0x01	; 1
     b8e:	0e 94 30 08 	call	0x1060	; 0x1060 <puts>
}

	mcp2515_bit_modify(MCP_CANINTE, 0b00000001, 0); // Enable interrupt bit when Receive Buffer 0 has new data
     b92:	40 e0       	ldi	r20, 0x00	; 0
     b94:	50 e0       	ldi	r21, 0x00	; 0
     b96:	61 e0       	ldi	r22, 0x01	; 1
     b98:	70 e0       	ldi	r23, 0x00	; 0
     b9a:	8b e2       	ldi	r24, 0x2B	; 43
     b9c:	90 e0       	ldi	r25, 0x00	; 0
     b9e:	0e 94 78 05 	call	0xaf0	; 0xaf0 <mcp2515_bit_modify>
	mcp2515_bit_modify(MCP_CANINTF, 0b00000001, 0); // Reset interrupt bit in buffer 0 (must be done to receive next 8 bits)
     ba2:	40 e0       	ldi	r20, 0x00	; 0
     ba4:	50 e0       	ldi	r21, 0x00	; 0
     ba6:	61 e0       	ldi	r22, 0x01	; 1
     ba8:	70 e0       	ldi	r23, 0x00	; 0
     baa:	8c e2       	ldi	r24, 0x2C	; 44
     bac:	90 e0       	ldi	r25, 0x00	; 0
     bae:	0e 94 78 05 	call	0xaf0	; 0xaf0 <mcp2515_bit_modify>
	
	// Configure bit timing
	mcp2515_write(MCP_CNF1, 0x03);	// BRP (Baud Rate Prescaling) = 3+1
     bb2:	63 e0       	ldi	r22, 0x03	; 3
     bb4:	8a e2       	ldi	r24, 0x2A	; 42
     bb6:	0e 94 59 05 	call	0xab2	; 0xab2 <mcp2515_write>
	mcp2515_write(MCP_CNF2, 0xB1);	// Propagation Segment PS = 1+1, PS1 = 7+1
     bba:	61 eb       	ldi	r22, 0xB1	; 177
     bbc:	89 e2       	ldi	r24, 0x29	; 41
     bbe:	0e 94 59 05 	call	0xab2	; 0xab2 <mcp2515_write>
	mcp2515_write(MCP_CNF3, 0x85);	// PS2 = 5+1, BTLMode ON (muy importante)
     bc2:	65 e8       	ldi	r22, 0x85	; 133
     bc4:	88 e2       	ldi	r24, 0x28	; 40
     bc6:	0e 94 59 05 	call	0xab2	; 0xab2 <mcp2515_write>

	mcp2515_write(MCP_CANCTRL, MODE_NORMAL); // Enter normal mode
     bca:	60 e0       	ldi	r22, 0x00	; 0
     bcc:	8f e0       	ldi	r24, 0x0F	; 15
     bce:	0e 94 59 05 	call	0xab2	; 0xab2 <mcp2515_write>
	mode = mcp2515_read(MCP_CANSTAT);
     bd2:	8e e0       	ldi	r24, 0x0E	; 14
     bd4:	0e 94 47 05 	call	0xa8e	; 0xa8e <mcp2515_read>
	if ((mode & MODE_MASK ) != MODE_NORMAL) {
     bd8:	80 7e       	andi	r24, 0xE0	; 224
     bda:	29 f0       	breq	.+10     	; 0xbe6 <mcp2515_init+0x9e>
		printf("ERROR: MCP2515 is NOT in normal mode!\r\n");
     bdc:	80 e6       	ldi	r24, 0x60	; 96
     bde:	91 e0       	ldi	r25, 0x01	; 1
     be0:	0e 94 30 08 	call	0x1060	; 0x1060 <puts>
     be4:	08 95       	ret
	}else{
		printf("MCP2515 entered normal mode\r\n");
     be6:	87 e8       	ldi	r24, 0x87	; 135
     be8:	91 e0       	ldi	r25, 0x01	; 1
     bea:	0e 94 30 08 	call	0x1060	; 0x1060 <puts>
     bee:	08 95       	ret

00000bf0 <menu_func0>:
	if (menu.currentPage->parentMenu == NULL){
		return 0;	// Already in main menu (root) do nothing
	}
	menu.currentPage = menu.currentPage->parentMenu;	// Select parent menu of the current page.
	return 1;
}
     bf0:	80 e5       	ldi	r24, 0x50	; 80
     bf2:	92 e0       	ldi	r25, 0x02	; 2
     bf4:	0e 94 30 08 	call	0x1060	; 0x1060 <puts>
     bf8:	60 e0       	ldi	r22, 0x00	; 0
     bfa:	80 e5       	ldi	r24, 0x50	; 80
     bfc:	92 e0       	ldi	r25, 0x02	; 2
     bfe:	0e 94 63 07 	call	0xec6	; 0xec6 <oled_print>
     c02:	2f e9       	ldi	r18, 0x9F	; 159
     c04:	86 e8       	ldi	r24, 0x86	; 134
     c06:	91 e0       	ldi	r25, 0x01	; 1
     c08:	21 50       	subi	r18, 0x01	; 1
     c0a:	80 40       	sbci	r24, 0x00	; 0
     c0c:	90 40       	sbci	r25, 0x00	; 0
     c0e:	e1 f7       	brne	.-8      	; 0xc08 <menu_func0+0x18>
     c10:	00 c0       	rjmp	.+0      	; 0xc12 <menu_func0+0x22>
     c12:	00 00       	nop
     c14:	08 95       	ret

00000c16 <menu_func1>:
     c16:	84 e6       	ldi	r24, 0x64	; 100
     c18:	92 e0       	ldi	r25, 0x02	; 2
     c1a:	0e 94 30 08 	call	0x1060	; 0x1060 <puts>
     c1e:	0e 94 05 07 	call	0xe0a	; 0xe0a <oled_reset>
     c22:	60 e0       	ldi	r22, 0x00	; 0
     c24:	84 e6       	ldi	r24, 0x64	; 100
     c26:	92 e0       	ldi	r25, 0x02	; 2
     c28:	0e 94 63 07 	call	0xec6	; 0xec6 <oled_print>
     c2c:	2f e9       	ldi	r18, 0x9F	; 159
     c2e:	86 e8       	ldi	r24, 0x86	; 134
     c30:	91 e0       	ldi	r25, 0x01	; 1
     c32:	21 50       	subi	r18, 0x01	; 1
     c34:	80 40       	sbci	r24, 0x00	; 0
     c36:	90 40       	sbci	r25, 0x00	; 0
     c38:	e1 f7       	brne	.-8      	; 0xc32 <menu_func1+0x1c>
     c3a:	00 c0       	rjmp	.+0      	; 0xc3c <menu_func1+0x26>
     c3c:	00 00       	nop
     c3e:	08 95       	ret

00000c40 <menu_init>:
     c40:	cf 93       	push	r28
     c42:	df 93       	push	r29
     c44:	8a e0       	ldi	r24, 0x0A	; 10
     c46:	e9 e7       	ldi	r30, 0x79	; 121
     c48:	f2 e0       	ldi	r31, 0x02	; 2
     c4a:	ab eb       	ldi	r26, 0xBB	; 187
     c4c:	b2 e0       	ldi	r27, 0x02	; 2
     c4e:	01 90       	ld	r0, Z+
     c50:	0d 92       	st	X+, r0
     c52:	8a 95       	dec	r24
     c54:	e1 f7       	brne	.-8      	; 0xc4e <menu_init+0xe>
     c56:	c2 ea       	ldi	r28, 0xA2	; 162
     c58:	d2 e0       	ldi	r29, 0x02	; 2
     c5a:	82 e0       	ldi	r24, 0x02	; 2
     c5c:	88 8f       	std	Y+24, r24	; 0x18
     c5e:	84 ea       	ldi	r24, 0xA4	; 164
     c60:	92 e0       	ldi	r25, 0x02	; 2
     c62:	99 83       	std	Y+1, r25	; 0x01
     c64:	88 83       	st	Y, r24
     c66:	8b e0       	ldi	r24, 0x0B	; 11
     c68:	e3 e8       	ldi	r30, 0x83	; 131
     c6a:	f2 e0       	ldi	r31, 0x02	; 2
     c6c:	ad ee       	ldi	r26, 0xED	; 237
     c6e:	b2 e0       	ldi	r27, 0x02	; 2
     c70:	01 90       	ld	r0, Z+
     c72:	0d 92       	st	X+, r0
     c74:	8a 95       	dec	r24
     c76:	e1 f7       	brne	.-8      	; 0xc70 <menu_init+0x30>
     c78:	88 ef       	ldi	r24, 0xF8	; 248
     c7a:	95 e0       	ldi	r25, 0x05	; 5
     c7c:	90 93 07 03 	sts	0x0307, r25	; 0x800307 <__data_end+0x65>
     c80:	80 93 06 03 	sts	0x0306, r24	; 0x800306 <__data_end+0x64>
     c84:	10 92 ec 02 	sts	0x02EC, r1	; 0x8002ec <__data_end+0x4a>
     c88:	86 ed       	ldi	r24, 0xD6	; 214
     c8a:	92 e0       	ldi	r25, 0x02	; 2
     c8c:	9d 83       	std	Y+5, r25	; 0x05
     c8e:	8c 83       	std	Y+4, r24	; 0x04
     c90:	8b e0       	ldi	r24, 0x0B	; 11
     c92:	ee e8       	ldi	r30, 0x8E	; 142
     c94:	f2 e0       	ldi	r31, 0x02	; 2
     c96:	af e1       	ldi	r26, 0x1F	; 31
     c98:	b3 e0       	ldi	r27, 0x03	; 3
     c9a:	01 90       	ld	r0, Z+
     c9c:	0d 92       	st	X+, r0
     c9e:	8a 95       	dec	r24
     ca0:	e1 f7       	brne	.-8      	; 0xc9a <menu_init+0x5a>
     ca2:	8b e0       	ldi	r24, 0x0B	; 11
     ca4:	96 e0       	ldi	r25, 0x06	; 6
     ca6:	90 93 39 03 	sts	0x0339, r25	; 0x800339 <__data_end+0x97>
     caa:	80 93 38 03 	sts	0x0338, r24	; 0x800338 <__data_end+0x96>
     cae:	10 92 1e 03 	sts	0x031E, r1	; 0x80031e <__data_end+0x7c>
     cb2:	88 e0       	ldi	r24, 0x08	; 8
     cb4:	93 e0       	ldi	r25, 0x03	; 3
     cb6:	9f 83       	std	Y+7, r25	; 0x07
     cb8:	8e 83       	std	Y+6, r24	; 0x06
     cba:	10 92 3a 03 	sts	0x033A, r1	; 0x80033a <__data_end+0x98>
     cbe:	df 91       	pop	r29
     cc0:	cf 91       	pop	r28
     cc2:	08 95       	ret

00000cc4 <menu_selectPage>:


void menu_selectPage(){
	menu.currentPage->subMenu[menu.cursor]->run();  // run the function for the selected page
     cc4:	80 91 a2 02 	lds	r24, 0x02A2	; 0x8002a2 <__data_end>
     cc8:	90 91 a3 02 	lds	r25, 0x02A3	; 0x8002a3 <__data_end+0x1>
     ccc:	e0 91 3a 03 	lds	r30, 0x033A	; 0x80033a <__data_end+0x98>
     cd0:	0e 2e       	mov	r0, r30
     cd2:	00 0c       	add	r0, r0
     cd4:	ff 0b       	sbc	r31, r31
     cd6:	31 96       	adiw	r30, 0x01	; 1
     cd8:	ee 0f       	add	r30, r30
     cda:	ff 1f       	adc	r31, r31
     cdc:	e8 0f       	add	r30, r24
     cde:	f9 1f       	adc	r31, r25
     ce0:	01 90       	ld	r0, Z+
     ce2:	f0 81       	ld	r31, Z
     ce4:	e0 2d       	mov	r30, r0
     ce6:	00 a8       	ldd	r0, Z+48	; 0x30
     ce8:	f1 a9       	ldd	r31, Z+49	; 0x31
     cea:	e0 2d       	mov	r30, r0
     cec:	09 95       	icall
     cee:	08 95       	ret

00000cf0 <menu_setCursor>:
}


bool menu_setCursor(int8_t index){
	// check if index is out of range
	if (index < 0){
     cf0:	88 23       	and	r24, r24
     cf2:	5c f0       	brlt	.+22     	; 0xd0a <menu_setCursor+0x1a>
		return 0;	// do nothing
	}
	else if(index >= menu.currentPage->totalSubMenu){
     cf4:	e0 91 a2 02 	lds	r30, 0x02A2	; 0x8002a2 <__data_end>
     cf8:	f0 91 a3 02 	lds	r31, 0x02A3	; 0x8002a3 <__data_end+0x1>
     cfc:	96 89       	ldd	r25, Z+22	; 0x16
     cfe:	89 17       	cp	r24, r25
     d00:	34 f4       	brge	.+12     	; 0xd0e <menu_setCursor+0x1e>
		return 0;	// do nothing
	}
	menu.cursor = index;	// update cursor location
     d02:	80 93 3a 03 	sts	0x033A, r24	; 0x80033a <__data_end+0x98>
	return 1;
     d06:	81 e0       	ldi	r24, 0x01	; 1
     d08:	08 95       	ret


bool menu_setCursor(int8_t index){
	// check if index is out of range
	if (index < 0){
		return 0;	// do nothing
     d0a:	80 e0       	ldi	r24, 0x00	; 0
     d0c:	08 95       	ret
	}
	else if(index >= menu.currentPage->totalSubMenu){
		return 0;	// do nothing
     d0e:	80 e0       	ldi	r24, 0x00	; 0
	}
	menu.cursor = index;	// update cursor location
	return 1;
}
     d10:	08 95       	ret

00000d12 <menu_moveCursor>:


bool menu_moveCursor(int8_t direction){
	int8_t index = menu.cursor + direction;
     d12:	90 91 3a 03 	lds	r25, 0x033A	; 0x80033a <__data_end+0x98>
	menu_setCursor(index);
     d16:	89 0f       	add	r24, r25
     d18:	0e 94 78 06 	call	0xcf0	; 0xcf0 <menu_setCursor>
}
     d1c:	08 95       	ret

00000d1e <oled_write_data>:
void oled_write_line(uint8_t page){
	oled_goto_page(page);
	for (uint8_t i = 0; i < 128; i++){
		oled_write_data(0x01);
	}
}
     d1e:	80 93 00 12 	sts	0x1200, r24	; 0x801200 <__bss_end+0xebb>
     d22:	08 95       	ret

00000d24 <oled_write_cmd>:
     d24:	80 93 00 10 	sts	0x1000, r24	; 0x801000 <__bss_end+0xcbb>
     d28:	08 95       	ret

00000d2a <oled_init>:
     d2a:	8e ea       	ldi	r24, 0xAE	; 174
     d2c:	0e 94 92 06 	call	0xd24	; 0xd24 <oled_write_cmd>
     d30:	81 ea       	ldi	r24, 0xA1	; 161
     d32:	0e 94 92 06 	call	0xd24	; 0xd24 <oled_write_cmd>
     d36:	8a ed       	ldi	r24, 0xDA	; 218
     d38:	0e 94 92 06 	call	0xd24	; 0xd24 <oled_write_cmd>
     d3c:	82 e1       	ldi	r24, 0x12	; 18
     d3e:	0e 94 92 06 	call	0xd24	; 0xd24 <oled_write_cmd>
     d42:	88 ec       	ldi	r24, 0xC8	; 200
     d44:	0e 94 92 06 	call	0xd24	; 0xd24 <oled_write_cmd>
     d48:	88 ea       	ldi	r24, 0xA8	; 168
     d4a:	0e 94 92 06 	call	0xd24	; 0xd24 <oled_write_cmd>
     d4e:	8f e3       	ldi	r24, 0x3F	; 63
     d50:	0e 94 92 06 	call	0xd24	; 0xd24 <oled_write_cmd>
     d54:	85 ed       	ldi	r24, 0xD5	; 213
     d56:	0e 94 92 06 	call	0xd24	; 0xd24 <oled_write_cmd>
     d5a:	80 e8       	ldi	r24, 0x80	; 128
     d5c:	0e 94 92 06 	call	0xd24	; 0xd24 <oled_write_cmd>
     d60:	81 e8       	ldi	r24, 0x81	; 129
     d62:	0e 94 92 06 	call	0xd24	; 0xd24 <oled_write_cmd>
     d66:	80 e5       	ldi	r24, 0x50	; 80
     d68:	0e 94 92 06 	call	0xd24	; 0xd24 <oled_write_cmd>
     d6c:	89 ed       	ldi	r24, 0xD9	; 217
     d6e:	0e 94 92 06 	call	0xd24	; 0xd24 <oled_write_cmd>
     d72:	81 e2       	ldi	r24, 0x21	; 33
     d74:	0e 94 92 06 	call	0xd24	; 0xd24 <oled_write_cmd>
     d78:	80 e2       	ldi	r24, 0x20	; 32
     d7a:	0e 94 92 06 	call	0xd24	; 0xd24 <oled_write_cmd>
     d7e:	82 e0       	ldi	r24, 0x02	; 2
     d80:	0e 94 92 06 	call	0xd24	; 0xd24 <oled_write_cmd>
     d84:	8b ed       	ldi	r24, 0xDB	; 219
     d86:	0e 94 92 06 	call	0xd24	; 0xd24 <oled_write_cmd>
     d8a:	80 e3       	ldi	r24, 0x30	; 48
     d8c:	0e 94 92 06 	call	0xd24	; 0xd24 <oled_write_cmd>
     d90:	8d ea       	ldi	r24, 0xAD	; 173
     d92:	0e 94 92 06 	call	0xd24	; 0xd24 <oled_write_cmd>
     d96:	80 e0       	ldi	r24, 0x00	; 0
     d98:	0e 94 92 06 	call	0xd24	; 0xd24 <oled_write_cmd>
     d9c:	84 ea       	ldi	r24, 0xA4	; 164
     d9e:	0e 94 92 06 	call	0xd24	; 0xd24 <oled_write_cmd>
     da2:	86 ea       	ldi	r24, 0xA6	; 166
     da4:	0e 94 92 06 	call	0xd24	; 0xd24 <oled_write_cmd>
     da8:	8f ea       	ldi	r24, 0xAF	; 175
     daa:	0e 94 92 06 	call	0xd24	; 0xd24 <oled_write_cmd>
     dae:	08 95       	ret

00000db0 <oled_goto_page>:
     db0:	87 70       	andi	r24, 0x07	; 7
     db2:	80 6b       	ori	r24, 0xB0	; 176
     db4:	0e 94 92 06 	call	0xd24	; 0xd24 <oled_write_cmd>
     db8:	08 95       	ret

00000dba <oled_goto_col>:
     dba:	cf 93       	push	r28
     dbc:	c8 2f       	mov	r28, r24
     dbe:	8f 70       	andi	r24, 0x0F	; 15
     dc0:	0e 94 92 06 	call	0xd24	; 0xd24 <oled_write_cmd>
     dc4:	8c 2f       	mov	r24, r28
     dc6:	82 95       	swap	r24
     dc8:	8f 70       	andi	r24, 0x0F	; 15
     dca:	80 61       	ori	r24, 0x10	; 16
     dcc:	0e 94 92 06 	call	0xd24	; 0xd24 <oled_write_cmd>
     dd0:	cf 91       	pop	r28
     dd2:	08 95       	ret

00000dd4 <oled_pos>:
     dd4:	cf 93       	push	r28
     dd6:	c6 2f       	mov	r28, r22
     dd8:	0e 94 d8 06 	call	0xdb0	; 0xdb0 <oled_goto_page>
     ddc:	8c 2f       	mov	r24, r28
     dde:	0e 94 dd 06 	call	0xdba	; 0xdba <oled_goto_col>
     de2:	cf 91       	pop	r28
     de4:	08 95       	ret

00000de6 <oled_home>:
     de6:	60 e0       	ldi	r22, 0x00	; 0
     de8:	80 e0       	ldi	r24, 0x00	; 0
     dea:	0e 94 ea 06 	call	0xdd4	; 0xdd4 <oled_pos>
     dee:	08 95       	ret

00000df0 <oled_clear_line>:


void oled_clear_line(uint8_t page){
     df0:	cf 93       	push	r28
	oled_goto_page(page);
     df2:	0e 94 d8 06 	call	0xdb0	; 0xdb0 <oled_goto_page>
	for (uint8_t i = 0; i < 128; i++){
     df6:	c0 e0       	ldi	r28, 0x00	; 0
     df8:	04 c0       	rjmp	.+8      	; 0xe02 <oled_clear_line+0x12>
		oled_write_data(0x00);
     dfa:	80 e0       	ldi	r24, 0x00	; 0
     dfc:	0e 94 8f 06 	call	0xd1e	; 0xd1e <oled_write_data>
}


void oled_clear_line(uint8_t page){
	oled_goto_page(page);
	for (uint8_t i = 0; i < 128; i++){
     e00:	cf 5f       	subi	r28, 0xFF	; 255
     e02:	cc 23       	and	r28, r28
     e04:	d4 f7       	brge	.-12     	; 0xdfa <oled_clear_line+0xa>
		oled_write_data(0x00);
	}
}
     e06:	cf 91       	pop	r28
     e08:	08 95       	ret

00000e0a <oled_reset>:


void oled_reset(){
     e0a:	cf 93       	push	r28
	for (uint8_t i=0; i < 8; i++){
     e0c:	c0 e0       	ldi	r28, 0x00	; 0
     e0e:	04 c0       	rjmp	.+8      	; 0xe18 <oled_reset+0xe>
		oled_clear_line(i);
     e10:	8c 2f       	mov	r24, r28
     e12:	0e 94 f8 06 	call	0xdf0	; 0xdf0 <oled_clear_line>
	}
}


void oled_reset(){
	for (uint8_t i=0; i < 8; i++){
     e16:	cf 5f       	subi	r28, 0xFF	; 255
     e18:	c8 30       	cpi	r28, 0x08	; 8
     e1a:	d0 f3       	brcs	.-12     	; 0xe10 <oled_reset+0x6>
		oled_clear_line(i);
	}
	oled_home();
     e1c:	0e 94 f3 06 	call	0xde6	; 0xde6 <oled_home>
}
     e20:	cf 91       	pop	r28
     e22:	08 95       	ret

00000e24 <oled_printChar>:


void oled_printChar(char c, char font){
     e24:	cf 93       	push	r28
     e26:	df 93       	push	r29
	//printf("%c = %d\r\n", c, c);
	if (c >= 0x20 && c <= 0x7F){ // Do not attempt to write if ASCII character does not exist
     e28:	90 ee       	ldi	r25, 0xE0	; 224
     e2a:	98 0f       	add	r25, r24
     e2c:	90 36       	cpi	r25, 0x60	; 96
     e2e:	08 f0       	brcs	.+2      	; 0xe32 <oled_printChar+0xe>
     e30:	47 c0       	rjmp	.+142    	; 0xec0 <oled_printChar+0x9c>
     e32:	c8 2f       	mov	r28, r24
		switch (font){
     e34:	64 30       	cpi	r22, 0x04	; 4
     e36:	99 f0       	breq	.+38     	; 0xe5e <oled_printChar+0x3a>
     e38:	68 30       	cpi	r22, 0x08	; 8
     e3a:	39 f1       	breq	.+78     	; 0xe8a <oled_printChar+0x66>
     e3c:	3e c0       	rjmp	.+124    	; 0xeba <oled_printChar+0x96>
			case 4: // 4x8 SMALL
				for (uint8_t i = 0; i < 4; i++){
					oled_write_data(pgm_read_byte(&font4[c-32][i])); // Function & font from fonts.h
     e3e:	ec 2f       	mov	r30, r28
     e40:	f0 e0       	ldi	r31, 0x00	; 0
     e42:	b0 97       	sbiw	r30, 0x20	; 32
     e44:	ee 0f       	add	r30, r30
     e46:	ff 1f       	adc	r31, r31
     e48:	ee 0f       	add	r30, r30
     e4a:	ff 1f       	adc	r31, r31
     e4c:	ed 0f       	add	r30, r29
     e4e:	f1 1d       	adc	r31, r1
     e50:	e0 59       	subi	r30, 0x90	; 144
     e52:	ff 4f       	sbci	r31, 0xFF	; 255
     e54:	84 91       	lpm	r24, Z
     e56:	0e 94 8f 06 	call	0xd1e	; 0xd1e <oled_write_data>
void oled_printChar(char c, char font){
	//printf("%c = %d\r\n", c, c);
	if (c >= 0x20 && c <= 0x7F){ // Do not attempt to write if ASCII character does not exist
		switch (font){
			case 4: // 4x8 SMALL
				for (uint8_t i = 0; i < 4; i++){
     e5a:	df 5f       	subi	r29, 0xFF	; 255
     e5c:	01 c0       	rjmp	.+2      	; 0xe60 <oled_printChar+0x3c>


void oled_printChar(char c, char font){
	//printf("%c = %d\r\n", c, c);
	if (c >= 0x20 && c <= 0x7F){ // Do not attempt to write if ASCII character does not exist
		switch (font){
     e5e:	d0 e0       	ldi	r29, 0x00	; 0
			case 4: // 4x8 SMALL
				for (uint8_t i = 0; i < 4; i++){
     e60:	d4 30       	cpi	r29, 0x04	; 4
     e62:	68 f3       	brcs	.-38     	; 0xe3e <oled_printChar+0x1a>
     e64:	2d c0       	rjmp	.+90     	; 0xec0 <oled_printChar+0x9c>
				}
				break;
			
			case 8: // 8x8 LARGE
				for (uint8_t i = 0; i < 8; i++){
					oled_write_data(pgm_read_byte(&font8[c-32][i]));
     e66:	ec 2f       	mov	r30, r28
     e68:	f0 e0       	ldi	r31, 0x00	; 0
     e6a:	b0 97       	sbiw	r30, 0x20	; 32
     e6c:	ee 0f       	add	r30, r30
     e6e:	ff 1f       	adc	r31, r31
     e70:	ee 0f       	add	r30, r30
     e72:	ff 1f       	adc	r31, r31
     e74:	ee 0f       	add	r30, r30
     e76:	ff 1f       	adc	r31, r31
     e78:	ed 0f       	add	r30, r29
     e7a:	f1 1d       	adc	r31, r1
     e7c:	e9 53       	subi	r30, 0x39	; 57
     e7e:	fc 4f       	sbci	r31, 0xFC	; 252
     e80:	84 91       	lpm	r24, Z
     e82:	0e 94 8f 06 	call	0xd1e	; 0xd1e <oled_write_data>
					oled_write_data(pgm_read_byte(&font4[c-32][i])); // Function & font from fonts.h
				}
				break;
			
			case 8: // 8x8 LARGE
				for (uint8_t i = 0; i < 8; i++){
     e86:	df 5f       	subi	r29, 0xFF	; 255
     e88:	01 c0       	rjmp	.+2      	; 0xe8c <oled_printChar+0x68>


void oled_printChar(char c, char font){
	//printf("%c = %d\r\n", c, c);
	if (c >= 0x20 && c <= 0x7F){ // Do not attempt to write if ASCII character does not exist
		switch (font){
     e8a:	d0 e0       	ldi	r29, 0x00	; 0
					oled_write_data(pgm_read_byte(&font4[c-32][i])); // Function & font from fonts.h
				}
				break;
			
			case 8: // 8x8 LARGE
				for (uint8_t i = 0; i < 8; i++){
     e8c:	d8 30       	cpi	r29, 0x08	; 8
     e8e:	58 f3       	brcs	.-42     	; 0xe66 <oled_printChar+0x42>
     e90:	17 c0       	rjmp	.+46     	; 0xec0 <oled_printChar+0x9c>
				}
				break;
		
			default: // 5x8 NORMAL
				for (uint8_t i = 0; i < 5; i++){
					oled_write_data(pgm_read_byte(&font5[c-32][i]));
     e92:	2c 2f       	mov	r18, r28
     e94:	30 e0       	ldi	r19, 0x00	; 0
     e96:	20 52       	subi	r18, 0x20	; 32
     e98:	31 09       	sbc	r19, r1
     e9a:	f9 01       	movw	r30, r18
     e9c:	ee 0f       	add	r30, r30
     e9e:	ff 1f       	adc	r31, r31
     ea0:	ee 0f       	add	r30, r30
     ea2:	ff 1f       	adc	r31, r31
     ea4:	e2 0f       	add	r30, r18
     ea6:	f3 1f       	adc	r31, r19
     ea8:	ed 0f       	add	r30, r29
     eaa:	f1 1d       	adc	r31, r1
     eac:	e4 51       	subi	r30, 0x14	; 20
     eae:	fe 4f       	sbci	r31, 0xFE	; 254
     eb0:	84 91       	lpm	r24, Z
     eb2:	0e 94 8f 06 	call	0xd1e	; 0xd1e <oled_write_data>
					oled_write_data(pgm_read_byte(&font8[c-32][i]));
				}
				break;
		
			default: // 5x8 NORMAL
				for (uint8_t i = 0; i < 5; i++){
     eb6:	df 5f       	subi	r29, 0xFF	; 255
     eb8:	01 c0       	rjmp	.+2      	; 0xebc <oled_printChar+0x98>


void oled_printChar(char c, char font){
	//printf("%c = %d\r\n", c, c);
	if (c >= 0x20 && c <= 0x7F){ // Do not attempt to write if ASCII character does not exist
		switch (font){
     eba:	d0 e0       	ldi	r29, 0x00	; 0
					oled_write_data(pgm_read_byte(&font8[c-32][i]));
				}
				break;
		
			default: // 5x8 NORMAL
				for (uint8_t i = 0; i < 5; i++){
     ebc:	d5 30       	cpi	r29, 0x05	; 5
     ebe:	48 f3       	brcs	.-46     	; 0xe92 <oled_printChar+0x6e>
					oled_write_data(pgm_read_byte(&font5[c-32][i]));
				}
				break;
		}
	}
}
     ec0:	df 91       	pop	r29
     ec2:	cf 91       	pop	r28
     ec4:	08 95       	ret

00000ec6 <oled_print>:


// Print strings to OLED
void oled_print(const char* data, char font){
     ec6:	0f 93       	push	r16
     ec8:	1f 93       	push	r17
     eca:	cf 93       	push	r28
     ecc:	df 93       	push	r29
     ece:	8c 01       	movw	r16, r24
	char f = 5; // Default font (5x8 NORMAL)
	if (f == 4 || f == 8){ // Selected fonts 4x8 SMALL or 8x8 LARGE
		f = font;
	}
	
	int i = 0;
     ed0:	c0 e0       	ldi	r28, 0x00	; 0
     ed2:	d0 e0       	ldi	r29, 0x00	; 0
     ed4:	04 c0       	rjmp	.+8      	; 0xede <oled_print+0x18>
	while(data[i] != '\0'){
		oled_printChar(data[i], f);
     ed6:	65 e0       	ldi	r22, 0x05	; 5
     ed8:	0e 94 12 07 	call	0xe24	; 0xe24 <oled_printChar>
		++i;
     edc:	21 96       	adiw	r28, 0x01	; 1
	if (f == 4 || f == 8){ // Selected fonts 4x8 SMALL or 8x8 LARGE
		f = font;
	}
	
	int i = 0;
	while(data[i] != '\0'){
     ede:	f8 01       	movw	r30, r16
     ee0:	ec 0f       	add	r30, r28
     ee2:	fd 1f       	adc	r31, r29
     ee4:	80 81       	ld	r24, Z
     ee6:	81 11       	cpse	r24, r1
     ee8:	f6 cf       	rjmp	.-20     	; 0xed6 <oled_print+0x10>
		oled_printChar(data[i], f);
		++i;
	}
     eea:	df 91       	pop	r29
     eec:	cf 91       	pop	r28
     eee:	1f 91       	pop	r17
     ef0:	0f 91       	pop	r16
     ef2:	08 95       	ret

00000ef4 <spi_init>:
#include <avr/io.h>

// Initialize as master
// Code modified from ATMega162 data sheet
void spi_init(void){
	DDRB |= (1 << PB5)|(1 << PB7); // MOSI out, SCK out
     ef4:	87 b3       	in	r24, 0x17	; 23
     ef6:	80 6a       	ori	r24, 0xA0	; 160
     ef8:	87 bb       	out	0x17, r24	; 23
	// Enable SPI as master (SPE, MSTR)
	// Set clock rate F_CPU/16 (SPR0)
	SPCR = (1<<SPE)|(1<<MSTR)|(1<<SPR0);
     efa:	81 e5       	ldi	r24, 0x51	; 81
     efc:	8d b9       	out	0x0d, r24	; 13
     efe:	08 95       	ret

00000f00 <spi_send>:
}


// Send data as master
void spi_send(char cData){
	SPDR = cData;
     f00:	8f b9       	out	0x0f, r24	; 15
	
	// Wait for transmission complete
	while(!(SPSR & 1<<SPIF)){
     f02:	77 9b       	sbis	0x0e, 7	; 14
     f04:	fe cf       	rjmp	.-4      	; 0xf02 <spi_send+0x2>
		;
	}
}
     f06:	08 95       	ret

00000f08 <spi_recv>:

// Receive data as master
// Same as sending
// Moves ring buffer by 8 bits to receive 8 bits from slave
uint8_t spi_recv(void){
	spi_send(0);
     f08:	80 e0       	ldi	r24, 0x00	; 0
     f0a:	0e 94 80 07 	call	0xf00	; 0xf00 <spi_send>
	return SPDR;
     f0e:	8f b1       	in	r24, 0x0f	; 15
     f10:	08 95       	ret

00000f12 <SRAM_init>:
#include <avr/io.h>
#include <inttypes.h> // Needed for uint16_t


void SRAM_init() {
	MCUCR |= (1 << SRE); // Enable SRAM
     f12:	85 b7       	in	r24, 0x35	; 53
     f14:	80 68       	ori	r24, 0x80	; 128
     f16:	85 bf       	out	0x35, r24	; 53
	SFIOR = (1 << XMM2); // Masks PC4-PC7 to make sure JTAG remains untouched
     f18:	80 e2       	ldi	r24, 0x20	; 32
     f1a:	80 bf       	out	0x30, r24	; 48
     f1c:	08 95       	ret

00000f1e <UART_receive>:
#include <stdio.h>
#include <avr/io.h>


int UART_receive(FILE * file) {
    while (!(UCSR0A & (1 << RXC0)));  // Wait until data is available to read
     f1e:	5f 9b       	sbis	0x0b, 7	; 11
     f20:	fe cf       	rjmp	.-4      	; 0xf1e <UART_receive>
    return UDR0;  // Return the received data
     f22:	8c b1       	in	r24, 0x0c	; 12
}
     f24:	90 e0       	ldi	r25, 0x00	; 0
     f26:	08 95       	ret

00000f28 <UART_transmit>:


int UART_transmit(char data, FILE * file) {
    while (!(UCSR0A & (1 << UDRE0)));  // Wait for the data register to be empty
     f28:	5d 9b       	sbis	0x0b, 5	; 11
     f2a:	fe cf       	rjmp	.-4      	; 0xf28 <UART_transmit>
    UDR0 = data;  // Load the data into the register for transmission
     f2c:	8c b9       	out	0x0c, r24	; 12
	
	return 0;
}
     f2e:	80 e0       	ldi	r24, 0x00	; 0
     f30:	90 e0       	ldi	r25, 0x00	; 0
     f32:	08 95       	ret

00000f34 <UART_init>:


void UART_init(unsigned int ubrr)
{
	/* Set baud rate */
	UBRR0H = (unsigned char)(ubrr>>8);
     f34:	90 bd       	out	0x20, r25	; 32
	UBRR0L = (unsigned char)ubrr;
     f36:	89 b9       	out	0x09, r24	; 9
	/* Enable receiver and transmitter */
	UCSR0B = (1<<RXEN0)|(1<<TXEN0);
     f38:	88 e1       	ldi	r24, 0x18	; 24
     f3a:	8a b9       	out	0x0a, r24	; 10
	/* Set frame format: 8data, 2stop bit, synchronous mode */
	UCSR0C = (1<<URSEL0)|(1<<USBS0)|(3<<UCSZ00);
     f3c:	8e e8       	ldi	r24, 0x8E	; 142
     f3e:	80 bd       	out	0x20, r24	; 32
	// Make the transmit & receive functions write to a stream / file
	fdevopen(UART_transmit, UART_receive);
     f40:	6f e8       	ldi	r22, 0x8F	; 143
     f42:	77 e0       	ldi	r23, 0x07	; 7
     f44:	84 e9       	ldi	r24, 0x94	; 148
     f46:	97 e0       	ldi	r25, 0x07	; 7
     f48:	0e 94 cf 07 	call	0xf9e	; 0xf9e <fdevopen>
     f4c:	08 95       	ret

00000f4e <__divmodhi4>:
     f4e:	97 fb       	bst	r25, 7
     f50:	07 2e       	mov	r0, r23
     f52:	16 f4       	brtc	.+4      	; 0xf58 <__divmodhi4+0xa>
     f54:	00 94       	com	r0
     f56:	07 d0       	rcall	.+14     	; 0xf66 <__divmodhi4_neg1>
     f58:	77 fd       	sbrc	r23, 7
     f5a:	09 d0       	rcall	.+18     	; 0xf6e <__divmodhi4_neg2>
     f5c:	0e 94 bb 07 	call	0xf76	; 0xf76 <__udivmodhi4>
     f60:	07 fc       	sbrc	r0, 7
     f62:	05 d0       	rcall	.+10     	; 0xf6e <__divmodhi4_neg2>
     f64:	3e f4       	brtc	.+14     	; 0xf74 <__divmodhi4_exit>

00000f66 <__divmodhi4_neg1>:
     f66:	90 95       	com	r25
     f68:	81 95       	neg	r24
     f6a:	9f 4f       	sbci	r25, 0xFF	; 255
     f6c:	08 95       	ret

00000f6e <__divmodhi4_neg2>:
     f6e:	70 95       	com	r23
     f70:	61 95       	neg	r22
     f72:	7f 4f       	sbci	r23, 0xFF	; 255

00000f74 <__divmodhi4_exit>:
     f74:	08 95       	ret

00000f76 <__udivmodhi4>:
     f76:	aa 1b       	sub	r26, r26
     f78:	bb 1b       	sub	r27, r27
     f7a:	51 e1       	ldi	r21, 0x11	; 17
     f7c:	07 c0       	rjmp	.+14     	; 0xf8c <__udivmodhi4_ep>

00000f7e <__udivmodhi4_loop>:
     f7e:	aa 1f       	adc	r26, r26
     f80:	bb 1f       	adc	r27, r27
     f82:	a6 17       	cp	r26, r22
     f84:	b7 07       	cpc	r27, r23
     f86:	10 f0       	brcs	.+4      	; 0xf8c <__udivmodhi4_ep>
     f88:	a6 1b       	sub	r26, r22
     f8a:	b7 0b       	sbc	r27, r23

00000f8c <__udivmodhi4_ep>:
     f8c:	88 1f       	adc	r24, r24
     f8e:	99 1f       	adc	r25, r25
     f90:	5a 95       	dec	r21
     f92:	a9 f7       	brne	.-22     	; 0xf7e <__udivmodhi4_loop>
     f94:	80 95       	com	r24
     f96:	90 95       	com	r25
     f98:	bc 01       	movw	r22, r24
     f9a:	cd 01       	movw	r24, r26
     f9c:	08 95       	ret

00000f9e <fdevopen>:
     f9e:	0f 93       	push	r16
     fa0:	1f 93       	push	r17
     fa2:	cf 93       	push	r28
     fa4:	df 93       	push	r29
     fa6:	00 97       	sbiw	r24, 0x00	; 0
     fa8:	31 f4       	brne	.+12     	; 0xfb6 <fdevopen+0x18>
     faa:	61 15       	cp	r22, r1
     fac:	71 05       	cpc	r23, r1
     fae:	19 f4       	brne	.+6      	; 0xfb6 <fdevopen+0x18>
     fb0:	80 e0       	ldi	r24, 0x00	; 0
     fb2:	90 e0       	ldi	r25, 0x00	; 0
     fb4:	3a c0       	rjmp	.+116    	; 0x102a <fdevopen+0x8c>
     fb6:	8b 01       	movw	r16, r22
     fb8:	ec 01       	movw	r28, r24
     fba:	6e e0       	ldi	r22, 0x0E	; 14
     fbc:	70 e0       	ldi	r23, 0x00	; 0
     fbe:	81 e0       	ldi	r24, 0x01	; 1
     fc0:	90 e0       	ldi	r25, 0x00	; 0
     fc2:	0e 94 41 0a 	call	0x1482	; 0x1482 <calloc>
     fc6:	fc 01       	movw	r30, r24
     fc8:	89 2b       	or	r24, r25
     fca:	91 f3       	breq	.-28     	; 0xfb0 <fdevopen+0x12>
     fcc:	80 e8       	ldi	r24, 0x80	; 128
     fce:	83 83       	std	Z+3, r24	; 0x03
     fd0:	01 15       	cp	r16, r1
     fd2:	11 05       	cpc	r17, r1
     fd4:	71 f0       	breq	.+28     	; 0xff2 <fdevopen+0x54>
     fd6:	13 87       	std	Z+11, r17	; 0x0b
     fd8:	02 87       	std	Z+10, r16	; 0x0a
     fda:	81 e8       	ldi	r24, 0x81	; 129
     fdc:	83 83       	std	Z+3, r24	; 0x03
     fde:	80 91 3b 03 	lds	r24, 0x033B	; 0x80033b <__iob>
     fe2:	90 91 3c 03 	lds	r25, 0x033C	; 0x80033c <__iob+0x1>
     fe6:	89 2b       	or	r24, r25
     fe8:	21 f4       	brne	.+8      	; 0xff2 <fdevopen+0x54>
     fea:	f0 93 3c 03 	sts	0x033C, r31	; 0x80033c <__iob+0x1>
     fee:	e0 93 3b 03 	sts	0x033B, r30	; 0x80033b <__iob>
     ff2:	20 97       	sbiw	r28, 0x00	; 0
     ff4:	c9 f0       	breq	.+50     	; 0x1028 <fdevopen+0x8a>
     ff6:	d1 87       	std	Z+9, r29	; 0x09
     ff8:	c0 87       	std	Z+8, r28	; 0x08
     ffa:	83 81       	ldd	r24, Z+3	; 0x03
     ffc:	82 60       	ori	r24, 0x02	; 2
     ffe:	83 83       	std	Z+3, r24	; 0x03
    1000:	80 91 3d 03 	lds	r24, 0x033D	; 0x80033d <__iob+0x2>
    1004:	90 91 3e 03 	lds	r25, 0x033E	; 0x80033e <__iob+0x3>
    1008:	89 2b       	or	r24, r25
    100a:	71 f4       	brne	.+28     	; 0x1028 <fdevopen+0x8a>
    100c:	f0 93 3e 03 	sts	0x033E, r31	; 0x80033e <__iob+0x3>
    1010:	e0 93 3d 03 	sts	0x033D, r30	; 0x80033d <__iob+0x2>
    1014:	80 91 3f 03 	lds	r24, 0x033F	; 0x80033f <__iob+0x4>
    1018:	90 91 40 03 	lds	r25, 0x0340	; 0x800340 <__iob+0x5>
    101c:	89 2b       	or	r24, r25
    101e:	21 f4       	brne	.+8      	; 0x1028 <fdevopen+0x8a>
    1020:	f0 93 40 03 	sts	0x0340, r31	; 0x800340 <__iob+0x5>
    1024:	e0 93 3f 03 	sts	0x033F, r30	; 0x80033f <__iob+0x4>
    1028:	cf 01       	movw	r24, r30
    102a:	df 91       	pop	r29
    102c:	cf 91       	pop	r28
    102e:	1f 91       	pop	r17
    1030:	0f 91       	pop	r16
    1032:	08 95       	ret

00001034 <printf>:
    1034:	a0 e0       	ldi	r26, 0x00	; 0
    1036:	b0 e0       	ldi	r27, 0x00	; 0
    1038:	e0 e2       	ldi	r30, 0x20	; 32
    103a:	f8 e0       	ldi	r31, 0x08	; 8
    103c:	0c 94 45 0c 	jmp	0x188a	; 0x188a <__prologue_saves__+0x20>
    1040:	ae 01       	movw	r20, r28
    1042:	4b 5f       	subi	r20, 0xFB	; 251
    1044:	5f 4f       	sbci	r21, 0xFF	; 255
    1046:	fa 01       	movw	r30, r20
    1048:	61 91       	ld	r22, Z+
    104a:	71 91       	ld	r23, Z+
    104c:	af 01       	movw	r20, r30
    104e:	80 91 3d 03 	lds	r24, 0x033D	; 0x80033d <__iob+0x2>
    1052:	90 91 3e 03 	lds	r25, 0x033E	; 0x80033e <__iob+0x3>
    1056:	0e 94 60 08 	call	0x10c0	; 0x10c0 <vfprintf>
    105a:	e2 e0       	ldi	r30, 0x02	; 2
    105c:	0c 94 61 0c 	jmp	0x18c2	; 0x18c2 <__epilogue_restores__+0x20>

00001060 <puts>:
    1060:	0f 93       	push	r16
    1062:	1f 93       	push	r17
    1064:	cf 93       	push	r28
    1066:	df 93       	push	r29
    1068:	e0 91 3d 03 	lds	r30, 0x033D	; 0x80033d <__iob+0x2>
    106c:	f0 91 3e 03 	lds	r31, 0x033E	; 0x80033e <__iob+0x3>
    1070:	23 81       	ldd	r18, Z+3	; 0x03
    1072:	21 ff       	sbrs	r18, 1
    1074:	1b c0       	rjmp	.+54     	; 0x10ac <puts+0x4c>
    1076:	8c 01       	movw	r16, r24
    1078:	d0 e0       	ldi	r29, 0x00	; 0
    107a:	c0 e0       	ldi	r28, 0x00	; 0
    107c:	f8 01       	movw	r30, r16
    107e:	81 91       	ld	r24, Z+
    1080:	8f 01       	movw	r16, r30
    1082:	60 91 3d 03 	lds	r22, 0x033D	; 0x80033d <__iob+0x2>
    1086:	70 91 3e 03 	lds	r23, 0x033E	; 0x80033e <__iob+0x3>
    108a:	db 01       	movw	r26, r22
    108c:	18 96       	adiw	r26, 0x08	; 8
    108e:	ed 91       	ld	r30, X+
    1090:	fc 91       	ld	r31, X
    1092:	19 97       	sbiw	r26, 0x09	; 9
    1094:	88 23       	and	r24, r24
    1096:	31 f0       	breq	.+12     	; 0x10a4 <puts+0x44>
    1098:	09 95       	icall
    109a:	89 2b       	or	r24, r25
    109c:	79 f3       	breq	.-34     	; 0x107c <puts+0x1c>
    109e:	df ef       	ldi	r29, 0xFF	; 255
    10a0:	cf ef       	ldi	r28, 0xFF	; 255
    10a2:	ec cf       	rjmp	.-40     	; 0x107c <puts+0x1c>
    10a4:	8a e0       	ldi	r24, 0x0A	; 10
    10a6:	09 95       	icall
    10a8:	89 2b       	or	r24, r25
    10aa:	19 f0       	breq	.+6      	; 0x10b2 <puts+0x52>
    10ac:	8f ef       	ldi	r24, 0xFF	; 255
    10ae:	9f ef       	ldi	r25, 0xFF	; 255
    10b0:	02 c0       	rjmp	.+4      	; 0x10b6 <puts+0x56>
    10b2:	8d 2f       	mov	r24, r29
    10b4:	9c 2f       	mov	r25, r28
    10b6:	df 91       	pop	r29
    10b8:	cf 91       	pop	r28
    10ba:	1f 91       	pop	r17
    10bc:	0f 91       	pop	r16
    10be:	08 95       	ret

000010c0 <vfprintf>:
    10c0:	ab e0       	ldi	r26, 0x0B	; 11
    10c2:	b0 e0       	ldi	r27, 0x00	; 0
    10c4:	e6 e6       	ldi	r30, 0x66	; 102
    10c6:	f8 e0       	ldi	r31, 0x08	; 8
    10c8:	0c 94 35 0c 	jmp	0x186a	; 0x186a <__prologue_saves__>
    10cc:	6c 01       	movw	r12, r24
    10ce:	7b 01       	movw	r14, r22
    10d0:	8a 01       	movw	r16, r20
    10d2:	fc 01       	movw	r30, r24
    10d4:	17 82       	std	Z+7, r1	; 0x07
    10d6:	16 82       	std	Z+6, r1	; 0x06
    10d8:	83 81       	ldd	r24, Z+3	; 0x03
    10da:	81 ff       	sbrs	r24, 1
    10dc:	cc c1       	rjmp	.+920    	; 0x1476 <vfprintf+0x3b6>
    10de:	ce 01       	movw	r24, r28
    10e0:	01 96       	adiw	r24, 0x01	; 1
    10e2:	3c 01       	movw	r6, r24
    10e4:	f6 01       	movw	r30, r12
    10e6:	93 81       	ldd	r25, Z+3	; 0x03
    10e8:	f7 01       	movw	r30, r14
    10ea:	93 fd       	sbrc	r25, 3
    10ec:	85 91       	lpm	r24, Z+
    10ee:	93 ff       	sbrs	r25, 3
    10f0:	81 91       	ld	r24, Z+
    10f2:	7f 01       	movw	r14, r30
    10f4:	88 23       	and	r24, r24
    10f6:	09 f4       	brne	.+2      	; 0x10fa <vfprintf+0x3a>
    10f8:	ba c1       	rjmp	.+884    	; 0x146e <vfprintf+0x3ae>
    10fa:	85 32       	cpi	r24, 0x25	; 37
    10fc:	39 f4       	brne	.+14     	; 0x110c <vfprintf+0x4c>
    10fe:	93 fd       	sbrc	r25, 3
    1100:	85 91       	lpm	r24, Z+
    1102:	93 ff       	sbrs	r25, 3
    1104:	81 91       	ld	r24, Z+
    1106:	7f 01       	movw	r14, r30
    1108:	85 32       	cpi	r24, 0x25	; 37
    110a:	29 f4       	brne	.+10     	; 0x1116 <vfprintf+0x56>
    110c:	b6 01       	movw	r22, r12
    110e:	90 e0       	ldi	r25, 0x00	; 0
    1110:	0e 94 9b 0b 	call	0x1736	; 0x1736 <fputc>
    1114:	e7 cf       	rjmp	.-50     	; 0x10e4 <vfprintf+0x24>
    1116:	91 2c       	mov	r9, r1
    1118:	21 2c       	mov	r2, r1
    111a:	31 2c       	mov	r3, r1
    111c:	ff e1       	ldi	r31, 0x1F	; 31
    111e:	f3 15       	cp	r31, r3
    1120:	d8 f0       	brcs	.+54     	; 0x1158 <vfprintf+0x98>
    1122:	8b 32       	cpi	r24, 0x2B	; 43
    1124:	79 f0       	breq	.+30     	; 0x1144 <vfprintf+0x84>
    1126:	38 f4       	brcc	.+14     	; 0x1136 <vfprintf+0x76>
    1128:	80 32       	cpi	r24, 0x20	; 32
    112a:	79 f0       	breq	.+30     	; 0x114a <vfprintf+0x8a>
    112c:	83 32       	cpi	r24, 0x23	; 35
    112e:	a1 f4       	brne	.+40     	; 0x1158 <vfprintf+0x98>
    1130:	23 2d       	mov	r18, r3
    1132:	20 61       	ori	r18, 0x10	; 16
    1134:	1d c0       	rjmp	.+58     	; 0x1170 <vfprintf+0xb0>
    1136:	8d 32       	cpi	r24, 0x2D	; 45
    1138:	61 f0       	breq	.+24     	; 0x1152 <vfprintf+0x92>
    113a:	80 33       	cpi	r24, 0x30	; 48
    113c:	69 f4       	brne	.+26     	; 0x1158 <vfprintf+0x98>
    113e:	23 2d       	mov	r18, r3
    1140:	21 60       	ori	r18, 0x01	; 1
    1142:	16 c0       	rjmp	.+44     	; 0x1170 <vfprintf+0xb0>
    1144:	83 2d       	mov	r24, r3
    1146:	82 60       	ori	r24, 0x02	; 2
    1148:	38 2e       	mov	r3, r24
    114a:	e3 2d       	mov	r30, r3
    114c:	e4 60       	ori	r30, 0x04	; 4
    114e:	3e 2e       	mov	r3, r30
    1150:	2a c0       	rjmp	.+84     	; 0x11a6 <vfprintf+0xe6>
    1152:	f3 2d       	mov	r31, r3
    1154:	f8 60       	ori	r31, 0x08	; 8
    1156:	1d c0       	rjmp	.+58     	; 0x1192 <vfprintf+0xd2>
    1158:	37 fc       	sbrc	r3, 7
    115a:	2d c0       	rjmp	.+90     	; 0x11b6 <vfprintf+0xf6>
    115c:	20 ed       	ldi	r18, 0xD0	; 208
    115e:	28 0f       	add	r18, r24
    1160:	2a 30       	cpi	r18, 0x0A	; 10
    1162:	40 f0       	brcs	.+16     	; 0x1174 <vfprintf+0xb4>
    1164:	8e 32       	cpi	r24, 0x2E	; 46
    1166:	b9 f4       	brne	.+46     	; 0x1196 <vfprintf+0xd6>
    1168:	36 fc       	sbrc	r3, 6
    116a:	81 c1       	rjmp	.+770    	; 0x146e <vfprintf+0x3ae>
    116c:	23 2d       	mov	r18, r3
    116e:	20 64       	ori	r18, 0x40	; 64
    1170:	32 2e       	mov	r3, r18
    1172:	19 c0       	rjmp	.+50     	; 0x11a6 <vfprintf+0xe6>
    1174:	36 fe       	sbrs	r3, 6
    1176:	06 c0       	rjmp	.+12     	; 0x1184 <vfprintf+0xc4>
    1178:	8a e0       	ldi	r24, 0x0A	; 10
    117a:	98 9e       	mul	r9, r24
    117c:	20 0d       	add	r18, r0
    117e:	11 24       	eor	r1, r1
    1180:	92 2e       	mov	r9, r18
    1182:	11 c0       	rjmp	.+34     	; 0x11a6 <vfprintf+0xe6>
    1184:	ea e0       	ldi	r30, 0x0A	; 10
    1186:	2e 9e       	mul	r2, r30
    1188:	20 0d       	add	r18, r0
    118a:	11 24       	eor	r1, r1
    118c:	22 2e       	mov	r2, r18
    118e:	f3 2d       	mov	r31, r3
    1190:	f0 62       	ori	r31, 0x20	; 32
    1192:	3f 2e       	mov	r3, r31
    1194:	08 c0       	rjmp	.+16     	; 0x11a6 <vfprintf+0xe6>
    1196:	8c 36       	cpi	r24, 0x6C	; 108
    1198:	21 f4       	brne	.+8      	; 0x11a2 <vfprintf+0xe2>
    119a:	83 2d       	mov	r24, r3
    119c:	80 68       	ori	r24, 0x80	; 128
    119e:	38 2e       	mov	r3, r24
    11a0:	02 c0       	rjmp	.+4      	; 0x11a6 <vfprintf+0xe6>
    11a2:	88 36       	cpi	r24, 0x68	; 104
    11a4:	41 f4       	brne	.+16     	; 0x11b6 <vfprintf+0xf6>
    11a6:	f7 01       	movw	r30, r14
    11a8:	93 fd       	sbrc	r25, 3
    11aa:	85 91       	lpm	r24, Z+
    11ac:	93 ff       	sbrs	r25, 3
    11ae:	81 91       	ld	r24, Z+
    11b0:	7f 01       	movw	r14, r30
    11b2:	81 11       	cpse	r24, r1
    11b4:	b3 cf       	rjmp	.-154    	; 0x111c <vfprintf+0x5c>
    11b6:	98 2f       	mov	r25, r24
    11b8:	9f 7d       	andi	r25, 0xDF	; 223
    11ba:	95 54       	subi	r25, 0x45	; 69
    11bc:	93 30       	cpi	r25, 0x03	; 3
    11be:	28 f4       	brcc	.+10     	; 0x11ca <vfprintf+0x10a>
    11c0:	0c 5f       	subi	r16, 0xFC	; 252
    11c2:	1f 4f       	sbci	r17, 0xFF	; 255
    11c4:	9f e3       	ldi	r25, 0x3F	; 63
    11c6:	99 83       	std	Y+1, r25	; 0x01
    11c8:	0d c0       	rjmp	.+26     	; 0x11e4 <vfprintf+0x124>
    11ca:	83 36       	cpi	r24, 0x63	; 99
    11cc:	31 f0       	breq	.+12     	; 0x11da <vfprintf+0x11a>
    11ce:	83 37       	cpi	r24, 0x73	; 115
    11d0:	71 f0       	breq	.+28     	; 0x11ee <vfprintf+0x12e>
    11d2:	83 35       	cpi	r24, 0x53	; 83
    11d4:	09 f0       	breq	.+2      	; 0x11d8 <vfprintf+0x118>
    11d6:	59 c0       	rjmp	.+178    	; 0x128a <vfprintf+0x1ca>
    11d8:	21 c0       	rjmp	.+66     	; 0x121c <vfprintf+0x15c>
    11da:	f8 01       	movw	r30, r16
    11dc:	80 81       	ld	r24, Z
    11de:	89 83       	std	Y+1, r24	; 0x01
    11e0:	0e 5f       	subi	r16, 0xFE	; 254
    11e2:	1f 4f       	sbci	r17, 0xFF	; 255
    11e4:	88 24       	eor	r8, r8
    11e6:	83 94       	inc	r8
    11e8:	91 2c       	mov	r9, r1
    11ea:	53 01       	movw	r10, r6
    11ec:	13 c0       	rjmp	.+38     	; 0x1214 <vfprintf+0x154>
    11ee:	28 01       	movw	r4, r16
    11f0:	f2 e0       	ldi	r31, 0x02	; 2
    11f2:	4f 0e       	add	r4, r31
    11f4:	51 1c       	adc	r5, r1
    11f6:	f8 01       	movw	r30, r16
    11f8:	a0 80       	ld	r10, Z
    11fa:	b1 80       	ldd	r11, Z+1	; 0x01
    11fc:	36 fe       	sbrs	r3, 6
    11fe:	03 c0       	rjmp	.+6      	; 0x1206 <vfprintf+0x146>
    1200:	69 2d       	mov	r22, r9
    1202:	70 e0       	ldi	r23, 0x00	; 0
    1204:	02 c0       	rjmp	.+4      	; 0x120a <vfprintf+0x14a>
    1206:	6f ef       	ldi	r22, 0xFF	; 255
    1208:	7f ef       	ldi	r23, 0xFF	; 255
    120a:	c5 01       	movw	r24, r10
    120c:	0e 94 90 0b 	call	0x1720	; 0x1720 <strnlen>
    1210:	4c 01       	movw	r8, r24
    1212:	82 01       	movw	r16, r4
    1214:	f3 2d       	mov	r31, r3
    1216:	ff 77       	andi	r31, 0x7F	; 127
    1218:	3f 2e       	mov	r3, r31
    121a:	16 c0       	rjmp	.+44     	; 0x1248 <vfprintf+0x188>
    121c:	28 01       	movw	r4, r16
    121e:	22 e0       	ldi	r18, 0x02	; 2
    1220:	42 0e       	add	r4, r18
    1222:	51 1c       	adc	r5, r1
    1224:	f8 01       	movw	r30, r16
    1226:	a0 80       	ld	r10, Z
    1228:	b1 80       	ldd	r11, Z+1	; 0x01
    122a:	36 fe       	sbrs	r3, 6
    122c:	03 c0       	rjmp	.+6      	; 0x1234 <vfprintf+0x174>
    122e:	69 2d       	mov	r22, r9
    1230:	70 e0       	ldi	r23, 0x00	; 0
    1232:	02 c0       	rjmp	.+4      	; 0x1238 <vfprintf+0x178>
    1234:	6f ef       	ldi	r22, 0xFF	; 255
    1236:	7f ef       	ldi	r23, 0xFF	; 255
    1238:	c5 01       	movw	r24, r10
    123a:	0e 94 7e 0b 	call	0x16fc	; 0x16fc <strnlen_P>
    123e:	4c 01       	movw	r8, r24
    1240:	f3 2d       	mov	r31, r3
    1242:	f0 68       	ori	r31, 0x80	; 128
    1244:	3f 2e       	mov	r3, r31
    1246:	82 01       	movw	r16, r4
    1248:	33 fc       	sbrc	r3, 3
    124a:	1b c0       	rjmp	.+54     	; 0x1282 <vfprintf+0x1c2>
    124c:	82 2d       	mov	r24, r2
    124e:	90 e0       	ldi	r25, 0x00	; 0
    1250:	88 16       	cp	r8, r24
    1252:	99 06       	cpc	r9, r25
    1254:	b0 f4       	brcc	.+44     	; 0x1282 <vfprintf+0x1c2>
    1256:	b6 01       	movw	r22, r12
    1258:	80 e2       	ldi	r24, 0x20	; 32
    125a:	90 e0       	ldi	r25, 0x00	; 0
    125c:	0e 94 9b 0b 	call	0x1736	; 0x1736 <fputc>
    1260:	2a 94       	dec	r2
    1262:	f4 cf       	rjmp	.-24     	; 0x124c <vfprintf+0x18c>
    1264:	f5 01       	movw	r30, r10
    1266:	37 fc       	sbrc	r3, 7
    1268:	85 91       	lpm	r24, Z+
    126a:	37 fe       	sbrs	r3, 7
    126c:	81 91       	ld	r24, Z+
    126e:	5f 01       	movw	r10, r30
    1270:	b6 01       	movw	r22, r12
    1272:	90 e0       	ldi	r25, 0x00	; 0
    1274:	0e 94 9b 0b 	call	0x1736	; 0x1736 <fputc>
    1278:	21 10       	cpse	r2, r1
    127a:	2a 94       	dec	r2
    127c:	21 e0       	ldi	r18, 0x01	; 1
    127e:	82 1a       	sub	r8, r18
    1280:	91 08       	sbc	r9, r1
    1282:	81 14       	cp	r8, r1
    1284:	91 04       	cpc	r9, r1
    1286:	71 f7       	brne	.-36     	; 0x1264 <vfprintf+0x1a4>
    1288:	e8 c0       	rjmp	.+464    	; 0x145a <vfprintf+0x39a>
    128a:	84 36       	cpi	r24, 0x64	; 100
    128c:	11 f0       	breq	.+4      	; 0x1292 <vfprintf+0x1d2>
    128e:	89 36       	cpi	r24, 0x69	; 105
    1290:	41 f5       	brne	.+80     	; 0x12e2 <vfprintf+0x222>
    1292:	f8 01       	movw	r30, r16
    1294:	37 fe       	sbrs	r3, 7
    1296:	07 c0       	rjmp	.+14     	; 0x12a6 <vfprintf+0x1e6>
    1298:	60 81       	ld	r22, Z
    129a:	71 81       	ldd	r23, Z+1	; 0x01
    129c:	82 81       	ldd	r24, Z+2	; 0x02
    129e:	93 81       	ldd	r25, Z+3	; 0x03
    12a0:	0c 5f       	subi	r16, 0xFC	; 252
    12a2:	1f 4f       	sbci	r17, 0xFF	; 255
    12a4:	08 c0       	rjmp	.+16     	; 0x12b6 <vfprintf+0x1f6>
    12a6:	60 81       	ld	r22, Z
    12a8:	71 81       	ldd	r23, Z+1	; 0x01
    12aa:	07 2e       	mov	r0, r23
    12ac:	00 0c       	add	r0, r0
    12ae:	88 0b       	sbc	r24, r24
    12b0:	99 0b       	sbc	r25, r25
    12b2:	0e 5f       	subi	r16, 0xFE	; 254
    12b4:	1f 4f       	sbci	r17, 0xFF	; 255
    12b6:	f3 2d       	mov	r31, r3
    12b8:	ff 76       	andi	r31, 0x6F	; 111
    12ba:	3f 2e       	mov	r3, r31
    12bc:	97 ff       	sbrs	r25, 7
    12be:	09 c0       	rjmp	.+18     	; 0x12d2 <vfprintf+0x212>
    12c0:	90 95       	com	r25
    12c2:	80 95       	com	r24
    12c4:	70 95       	com	r23
    12c6:	61 95       	neg	r22
    12c8:	7f 4f       	sbci	r23, 0xFF	; 255
    12ca:	8f 4f       	sbci	r24, 0xFF	; 255
    12cc:	9f 4f       	sbci	r25, 0xFF	; 255
    12ce:	f0 68       	ori	r31, 0x80	; 128
    12d0:	3f 2e       	mov	r3, r31
    12d2:	2a e0       	ldi	r18, 0x0A	; 10
    12d4:	30 e0       	ldi	r19, 0x00	; 0
    12d6:	a3 01       	movw	r20, r6
    12d8:	0e 94 d7 0b 	call	0x17ae	; 0x17ae <__ultoa_invert>
    12dc:	88 2e       	mov	r8, r24
    12de:	86 18       	sub	r8, r6
    12e0:	45 c0       	rjmp	.+138    	; 0x136c <vfprintf+0x2ac>
    12e2:	85 37       	cpi	r24, 0x75	; 117
    12e4:	31 f4       	brne	.+12     	; 0x12f2 <vfprintf+0x232>
    12e6:	23 2d       	mov	r18, r3
    12e8:	2f 7e       	andi	r18, 0xEF	; 239
    12ea:	b2 2e       	mov	r11, r18
    12ec:	2a e0       	ldi	r18, 0x0A	; 10
    12ee:	30 e0       	ldi	r19, 0x00	; 0
    12f0:	25 c0       	rjmp	.+74     	; 0x133c <vfprintf+0x27c>
    12f2:	93 2d       	mov	r25, r3
    12f4:	99 7f       	andi	r25, 0xF9	; 249
    12f6:	b9 2e       	mov	r11, r25
    12f8:	8f 36       	cpi	r24, 0x6F	; 111
    12fa:	c1 f0       	breq	.+48     	; 0x132c <vfprintf+0x26c>
    12fc:	18 f4       	brcc	.+6      	; 0x1304 <vfprintf+0x244>
    12fe:	88 35       	cpi	r24, 0x58	; 88
    1300:	79 f0       	breq	.+30     	; 0x1320 <vfprintf+0x260>
    1302:	b5 c0       	rjmp	.+362    	; 0x146e <vfprintf+0x3ae>
    1304:	80 37       	cpi	r24, 0x70	; 112
    1306:	19 f0       	breq	.+6      	; 0x130e <vfprintf+0x24e>
    1308:	88 37       	cpi	r24, 0x78	; 120
    130a:	21 f0       	breq	.+8      	; 0x1314 <vfprintf+0x254>
    130c:	b0 c0       	rjmp	.+352    	; 0x146e <vfprintf+0x3ae>
    130e:	e9 2f       	mov	r30, r25
    1310:	e0 61       	ori	r30, 0x10	; 16
    1312:	be 2e       	mov	r11, r30
    1314:	b4 fe       	sbrs	r11, 4
    1316:	0d c0       	rjmp	.+26     	; 0x1332 <vfprintf+0x272>
    1318:	fb 2d       	mov	r31, r11
    131a:	f4 60       	ori	r31, 0x04	; 4
    131c:	bf 2e       	mov	r11, r31
    131e:	09 c0       	rjmp	.+18     	; 0x1332 <vfprintf+0x272>
    1320:	34 fe       	sbrs	r3, 4
    1322:	0a c0       	rjmp	.+20     	; 0x1338 <vfprintf+0x278>
    1324:	29 2f       	mov	r18, r25
    1326:	26 60       	ori	r18, 0x06	; 6
    1328:	b2 2e       	mov	r11, r18
    132a:	06 c0       	rjmp	.+12     	; 0x1338 <vfprintf+0x278>
    132c:	28 e0       	ldi	r18, 0x08	; 8
    132e:	30 e0       	ldi	r19, 0x00	; 0
    1330:	05 c0       	rjmp	.+10     	; 0x133c <vfprintf+0x27c>
    1332:	20 e1       	ldi	r18, 0x10	; 16
    1334:	30 e0       	ldi	r19, 0x00	; 0
    1336:	02 c0       	rjmp	.+4      	; 0x133c <vfprintf+0x27c>
    1338:	20 e1       	ldi	r18, 0x10	; 16
    133a:	32 e0       	ldi	r19, 0x02	; 2
    133c:	f8 01       	movw	r30, r16
    133e:	b7 fe       	sbrs	r11, 7
    1340:	07 c0       	rjmp	.+14     	; 0x1350 <vfprintf+0x290>
    1342:	60 81       	ld	r22, Z
    1344:	71 81       	ldd	r23, Z+1	; 0x01
    1346:	82 81       	ldd	r24, Z+2	; 0x02
    1348:	93 81       	ldd	r25, Z+3	; 0x03
    134a:	0c 5f       	subi	r16, 0xFC	; 252
    134c:	1f 4f       	sbci	r17, 0xFF	; 255
    134e:	06 c0       	rjmp	.+12     	; 0x135c <vfprintf+0x29c>
    1350:	60 81       	ld	r22, Z
    1352:	71 81       	ldd	r23, Z+1	; 0x01
    1354:	80 e0       	ldi	r24, 0x00	; 0
    1356:	90 e0       	ldi	r25, 0x00	; 0
    1358:	0e 5f       	subi	r16, 0xFE	; 254
    135a:	1f 4f       	sbci	r17, 0xFF	; 255
    135c:	a3 01       	movw	r20, r6
    135e:	0e 94 d7 0b 	call	0x17ae	; 0x17ae <__ultoa_invert>
    1362:	88 2e       	mov	r8, r24
    1364:	86 18       	sub	r8, r6
    1366:	fb 2d       	mov	r31, r11
    1368:	ff 77       	andi	r31, 0x7F	; 127
    136a:	3f 2e       	mov	r3, r31
    136c:	36 fe       	sbrs	r3, 6
    136e:	0d c0       	rjmp	.+26     	; 0x138a <vfprintf+0x2ca>
    1370:	23 2d       	mov	r18, r3
    1372:	2e 7f       	andi	r18, 0xFE	; 254
    1374:	a2 2e       	mov	r10, r18
    1376:	89 14       	cp	r8, r9
    1378:	58 f4       	brcc	.+22     	; 0x1390 <vfprintf+0x2d0>
    137a:	34 fe       	sbrs	r3, 4
    137c:	0b c0       	rjmp	.+22     	; 0x1394 <vfprintf+0x2d4>
    137e:	32 fc       	sbrc	r3, 2
    1380:	09 c0       	rjmp	.+18     	; 0x1394 <vfprintf+0x2d4>
    1382:	83 2d       	mov	r24, r3
    1384:	8e 7e       	andi	r24, 0xEE	; 238
    1386:	a8 2e       	mov	r10, r24
    1388:	05 c0       	rjmp	.+10     	; 0x1394 <vfprintf+0x2d4>
    138a:	b8 2c       	mov	r11, r8
    138c:	a3 2c       	mov	r10, r3
    138e:	03 c0       	rjmp	.+6      	; 0x1396 <vfprintf+0x2d6>
    1390:	b8 2c       	mov	r11, r8
    1392:	01 c0       	rjmp	.+2      	; 0x1396 <vfprintf+0x2d6>
    1394:	b9 2c       	mov	r11, r9
    1396:	a4 fe       	sbrs	r10, 4
    1398:	0f c0       	rjmp	.+30     	; 0x13b8 <vfprintf+0x2f8>
    139a:	fe 01       	movw	r30, r28
    139c:	e8 0d       	add	r30, r8
    139e:	f1 1d       	adc	r31, r1
    13a0:	80 81       	ld	r24, Z
    13a2:	80 33       	cpi	r24, 0x30	; 48
    13a4:	21 f4       	brne	.+8      	; 0x13ae <vfprintf+0x2ee>
    13a6:	9a 2d       	mov	r25, r10
    13a8:	99 7e       	andi	r25, 0xE9	; 233
    13aa:	a9 2e       	mov	r10, r25
    13ac:	09 c0       	rjmp	.+18     	; 0x13c0 <vfprintf+0x300>
    13ae:	a2 fe       	sbrs	r10, 2
    13b0:	06 c0       	rjmp	.+12     	; 0x13be <vfprintf+0x2fe>
    13b2:	b3 94       	inc	r11
    13b4:	b3 94       	inc	r11
    13b6:	04 c0       	rjmp	.+8      	; 0x13c0 <vfprintf+0x300>
    13b8:	8a 2d       	mov	r24, r10
    13ba:	86 78       	andi	r24, 0x86	; 134
    13bc:	09 f0       	breq	.+2      	; 0x13c0 <vfprintf+0x300>
    13be:	b3 94       	inc	r11
    13c0:	a3 fc       	sbrc	r10, 3
    13c2:	11 c0       	rjmp	.+34     	; 0x13e6 <vfprintf+0x326>
    13c4:	a0 fe       	sbrs	r10, 0
    13c6:	06 c0       	rjmp	.+12     	; 0x13d4 <vfprintf+0x314>
    13c8:	b2 14       	cp	r11, r2
    13ca:	88 f4       	brcc	.+34     	; 0x13ee <vfprintf+0x32e>
    13cc:	28 0c       	add	r2, r8
    13ce:	92 2c       	mov	r9, r2
    13d0:	9b 18       	sub	r9, r11
    13d2:	0e c0       	rjmp	.+28     	; 0x13f0 <vfprintf+0x330>
    13d4:	b2 14       	cp	r11, r2
    13d6:	60 f4       	brcc	.+24     	; 0x13f0 <vfprintf+0x330>
    13d8:	b6 01       	movw	r22, r12
    13da:	80 e2       	ldi	r24, 0x20	; 32
    13dc:	90 e0       	ldi	r25, 0x00	; 0
    13de:	0e 94 9b 0b 	call	0x1736	; 0x1736 <fputc>
    13e2:	b3 94       	inc	r11
    13e4:	f7 cf       	rjmp	.-18     	; 0x13d4 <vfprintf+0x314>
    13e6:	b2 14       	cp	r11, r2
    13e8:	18 f4       	brcc	.+6      	; 0x13f0 <vfprintf+0x330>
    13ea:	2b 18       	sub	r2, r11
    13ec:	02 c0       	rjmp	.+4      	; 0x13f2 <vfprintf+0x332>
    13ee:	98 2c       	mov	r9, r8
    13f0:	21 2c       	mov	r2, r1
    13f2:	a4 fe       	sbrs	r10, 4
    13f4:	10 c0       	rjmp	.+32     	; 0x1416 <vfprintf+0x356>
    13f6:	b6 01       	movw	r22, r12
    13f8:	80 e3       	ldi	r24, 0x30	; 48
    13fa:	90 e0       	ldi	r25, 0x00	; 0
    13fc:	0e 94 9b 0b 	call	0x1736	; 0x1736 <fputc>
    1400:	a2 fe       	sbrs	r10, 2
    1402:	17 c0       	rjmp	.+46     	; 0x1432 <vfprintf+0x372>
    1404:	a1 fc       	sbrc	r10, 1
    1406:	03 c0       	rjmp	.+6      	; 0x140e <vfprintf+0x34e>
    1408:	88 e7       	ldi	r24, 0x78	; 120
    140a:	90 e0       	ldi	r25, 0x00	; 0
    140c:	02 c0       	rjmp	.+4      	; 0x1412 <vfprintf+0x352>
    140e:	88 e5       	ldi	r24, 0x58	; 88
    1410:	90 e0       	ldi	r25, 0x00	; 0
    1412:	b6 01       	movw	r22, r12
    1414:	0c c0       	rjmp	.+24     	; 0x142e <vfprintf+0x36e>
    1416:	8a 2d       	mov	r24, r10
    1418:	86 78       	andi	r24, 0x86	; 134
    141a:	59 f0       	breq	.+22     	; 0x1432 <vfprintf+0x372>
    141c:	a1 fe       	sbrs	r10, 1
    141e:	02 c0       	rjmp	.+4      	; 0x1424 <vfprintf+0x364>
    1420:	8b e2       	ldi	r24, 0x2B	; 43
    1422:	01 c0       	rjmp	.+2      	; 0x1426 <vfprintf+0x366>
    1424:	80 e2       	ldi	r24, 0x20	; 32
    1426:	a7 fc       	sbrc	r10, 7
    1428:	8d e2       	ldi	r24, 0x2D	; 45
    142a:	b6 01       	movw	r22, r12
    142c:	90 e0       	ldi	r25, 0x00	; 0
    142e:	0e 94 9b 0b 	call	0x1736	; 0x1736 <fputc>
    1432:	89 14       	cp	r8, r9
    1434:	38 f4       	brcc	.+14     	; 0x1444 <vfprintf+0x384>
    1436:	b6 01       	movw	r22, r12
    1438:	80 e3       	ldi	r24, 0x30	; 48
    143a:	90 e0       	ldi	r25, 0x00	; 0
    143c:	0e 94 9b 0b 	call	0x1736	; 0x1736 <fputc>
    1440:	9a 94       	dec	r9
    1442:	f7 cf       	rjmp	.-18     	; 0x1432 <vfprintf+0x372>
    1444:	8a 94       	dec	r8
    1446:	f3 01       	movw	r30, r6
    1448:	e8 0d       	add	r30, r8
    144a:	f1 1d       	adc	r31, r1
    144c:	80 81       	ld	r24, Z
    144e:	b6 01       	movw	r22, r12
    1450:	90 e0       	ldi	r25, 0x00	; 0
    1452:	0e 94 9b 0b 	call	0x1736	; 0x1736 <fputc>
    1456:	81 10       	cpse	r8, r1
    1458:	f5 cf       	rjmp	.-22     	; 0x1444 <vfprintf+0x384>
    145a:	22 20       	and	r2, r2
    145c:	09 f4       	brne	.+2      	; 0x1460 <vfprintf+0x3a0>
    145e:	42 ce       	rjmp	.-892    	; 0x10e4 <vfprintf+0x24>
    1460:	b6 01       	movw	r22, r12
    1462:	80 e2       	ldi	r24, 0x20	; 32
    1464:	90 e0       	ldi	r25, 0x00	; 0
    1466:	0e 94 9b 0b 	call	0x1736	; 0x1736 <fputc>
    146a:	2a 94       	dec	r2
    146c:	f6 cf       	rjmp	.-20     	; 0x145a <vfprintf+0x39a>
    146e:	f6 01       	movw	r30, r12
    1470:	86 81       	ldd	r24, Z+6	; 0x06
    1472:	97 81       	ldd	r25, Z+7	; 0x07
    1474:	02 c0       	rjmp	.+4      	; 0x147a <vfprintf+0x3ba>
    1476:	8f ef       	ldi	r24, 0xFF	; 255
    1478:	9f ef       	ldi	r25, 0xFF	; 255
    147a:	2b 96       	adiw	r28, 0x0b	; 11
    147c:	e2 e1       	ldi	r30, 0x12	; 18
    147e:	0c 94 51 0c 	jmp	0x18a2	; 0x18a2 <__epilogue_restores__>

00001482 <calloc>:
    1482:	0f 93       	push	r16
    1484:	1f 93       	push	r17
    1486:	cf 93       	push	r28
    1488:	df 93       	push	r29
    148a:	86 9f       	mul	r24, r22
    148c:	80 01       	movw	r16, r0
    148e:	87 9f       	mul	r24, r23
    1490:	10 0d       	add	r17, r0
    1492:	96 9f       	mul	r25, r22
    1494:	10 0d       	add	r17, r0
    1496:	11 24       	eor	r1, r1
    1498:	c8 01       	movw	r24, r16
    149a:	0e 94 5d 0a 	call	0x14ba	; 0x14ba <malloc>
    149e:	ec 01       	movw	r28, r24
    14a0:	00 97       	sbiw	r24, 0x00	; 0
    14a2:	29 f0       	breq	.+10     	; 0x14ae <calloc+0x2c>
    14a4:	a8 01       	movw	r20, r16
    14a6:	60 e0       	ldi	r22, 0x00	; 0
    14a8:	70 e0       	ldi	r23, 0x00	; 0
    14aa:	0e 94 89 0b 	call	0x1712	; 0x1712 <memset>
    14ae:	ce 01       	movw	r24, r28
    14b0:	df 91       	pop	r29
    14b2:	cf 91       	pop	r28
    14b4:	1f 91       	pop	r17
    14b6:	0f 91       	pop	r16
    14b8:	08 95       	ret

000014ba <malloc>:
    14ba:	0f 93       	push	r16
    14bc:	1f 93       	push	r17
    14be:	cf 93       	push	r28
    14c0:	df 93       	push	r29
    14c2:	82 30       	cpi	r24, 0x02	; 2
    14c4:	91 05       	cpc	r25, r1
    14c6:	10 f4       	brcc	.+4      	; 0x14cc <malloc+0x12>
    14c8:	82 e0       	ldi	r24, 0x02	; 2
    14ca:	90 e0       	ldi	r25, 0x00	; 0
    14cc:	e0 91 43 03 	lds	r30, 0x0343	; 0x800343 <__flp>
    14d0:	f0 91 44 03 	lds	r31, 0x0344	; 0x800344 <__flp+0x1>
    14d4:	20 e0       	ldi	r18, 0x00	; 0
    14d6:	30 e0       	ldi	r19, 0x00	; 0
    14d8:	a0 e0       	ldi	r26, 0x00	; 0
    14da:	b0 e0       	ldi	r27, 0x00	; 0
    14dc:	30 97       	sbiw	r30, 0x00	; 0
    14de:	19 f1       	breq	.+70     	; 0x1526 <malloc+0x6c>
    14e0:	40 81       	ld	r20, Z
    14e2:	51 81       	ldd	r21, Z+1	; 0x01
    14e4:	02 81       	ldd	r16, Z+2	; 0x02
    14e6:	13 81       	ldd	r17, Z+3	; 0x03
    14e8:	48 17       	cp	r20, r24
    14ea:	59 07       	cpc	r21, r25
    14ec:	c8 f0       	brcs	.+50     	; 0x1520 <malloc+0x66>
    14ee:	84 17       	cp	r24, r20
    14f0:	95 07       	cpc	r25, r21
    14f2:	69 f4       	brne	.+26     	; 0x150e <malloc+0x54>
    14f4:	10 97       	sbiw	r26, 0x00	; 0
    14f6:	31 f0       	breq	.+12     	; 0x1504 <malloc+0x4a>
    14f8:	12 96       	adiw	r26, 0x02	; 2
    14fa:	0c 93       	st	X, r16
    14fc:	12 97       	sbiw	r26, 0x02	; 2
    14fe:	13 96       	adiw	r26, 0x03	; 3
    1500:	1c 93       	st	X, r17
    1502:	27 c0       	rjmp	.+78     	; 0x1552 <malloc+0x98>
    1504:	00 93 43 03 	sts	0x0343, r16	; 0x800343 <__flp>
    1508:	10 93 44 03 	sts	0x0344, r17	; 0x800344 <__flp+0x1>
    150c:	22 c0       	rjmp	.+68     	; 0x1552 <malloc+0x98>
    150e:	21 15       	cp	r18, r1
    1510:	31 05       	cpc	r19, r1
    1512:	19 f0       	breq	.+6      	; 0x151a <malloc+0x60>
    1514:	42 17       	cp	r20, r18
    1516:	53 07       	cpc	r21, r19
    1518:	18 f4       	brcc	.+6      	; 0x1520 <malloc+0x66>
    151a:	9a 01       	movw	r18, r20
    151c:	bd 01       	movw	r22, r26
    151e:	ef 01       	movw	r28, r30
    1520:	df 01       	movw	r26, r30
    1522:	f8 01       	movw	r30, r16
    1524:	db cf       	rjmp	.-74     	; 0x14dc <malloc+0x22>
    1526:	21 15       	cp	r18, r1
    1528:	31 05       	cpc	r19, r1
    152a:	f9 f0       	breq	.+62     	; 0x156a <malloc+0xb0>
    152c:	28 1b       	sub	r18, r24
    152e:	39 0b       	sbc	r19, r25
    1530:	24 30       	cpi	r18, 0x04	; 4
    1532:	31 05       	cpc	r19, r1
    1534:	80 f4       	brcc	.+32     	; 0x1556 <malloc+0x9c>
    1536:	8a 81       	ldd	r24, Y+2	; 0x02
    1538:	9b 81       	ldd	r25, Y+3	; 0x03
    153a:	61 15       	cp	r22, r1
    153c:	71 05       	cpc	r23, r1
    153e:	21 f0       	breq	.+8      	; 0x1548 <malloc+0x8e>
    1540:	fb 01       	movw	r30, r22
    1542:	93 83       	std	Z+3, r25	; 0x03
    1544:	82 83       	std	Z+2, r24	; 0x02
    1546:	04 c0       	rjmp	.+8      	; 0x1550 <malloc+0x96>
    1548:	90 93 44 03 	sts	0x0344, r25	; 0x800344 <__flp+0x1>
    154c:	80 93 43 03 	sts	0x0343, r24	; 0x800343 <__flp>
    1550:	fe 01       	movw	r30, r28
    1552:	32 96       	adiw	r30, 0x02	; 2
    1554:	44 c0       	rjmp	.+136    	; 0x15de <malloc+0x124>
    1556:	fe 01       	movw	r30, r28
    1558:	e2 0f       	add	r30, r18
    155a:	f3 1f       	adc	r31, r19
    155c:	81 93       	st	Z+, r24
    155e:	91 93       	st	Z+, r25
    1560:	22 50       	subi	r18, 0x02	; 2
    1562:	31 09       	sbc	r19, r1
    1564:	39 83       	std	Y+1, r19	; 0x01
    1566:	28 83       	st	Y, r18
    1568:	3a c0       	rjmp	.+116    	; 0x15de <malloc+0x124>
    156a:	20 91 41 03 	lds	r18, 0x0341	; 0x800341 <__brkval>
    156e:	30 91 42 03 	lds	r19, 0x0342	; 0x800342 <__brkval+0x1>
    1572:	23 2b       	or	r18, r19
    1574:	41 f4       	brne	.+16     	; 0x1586 <malloc+0xcc>
    1576:	20 91 02 01 	lds	r18, 0x0102	; 0x800102 <__malloc_heap_start>
    157a:	30 91 03 01 	lds	r19, 0x0103	; 0x800103 <__malloc_heap_start+0x1>
    157e:	30 93 42 03 	sts	0x0342, r19	; 0x800342 <__brkval+0x1>
    1582:	20 93 41 03 	sts	0x0341, r18	; 0x800341 <__brkval>
    1586:	20 91 00 01 	lds	r18, 0x0100	; 0x800100 <__DATA_REGION_ORIGIN__>
    158a:	30 91 01 01 	lds	r19, 0x0101	; 0x800101 <__DATA_REGION_ORIGIN__+0x1>
    158e:	21 15       	cp	r18, r1
    1590:	31 05       	cpc	r19, r1
    1592:	41 f4       	brne	.+16     	; 0x15a4 <malloc+0xea>
    1594:	2d b7       	in	r18, 0x3d	; 61
    1596:	3e b7       	in	r19, 0x3e	; 62
    1598:	40 91 04 01 	lds	r20, 0x0104	; 0x800104 <__malloc_margin>
    159c:	50 91 05 01 	lds	r21, 0x0105	; 0x800105 <__malloc_margin+0x1>
    15a0:	24 1b       	sub	r18, r20
    15a2:	35 0b       	sbc	r19, r21
    15a4:	e0 91 41 03 	lds	r30, 0x0341	; 0x800341 <__brkval>
    15a8:	f0 91 42 03 	lds	r31, 0x0342	; 0x800342 <__brkval+0x1>
    15ac:	e2 17       	cp	r30, r18
    15ae:	f3 07       	cpc	r31, r19
    15b0:	a0 f4       	brcc	.+40     	; 0x15da <malloc+0x120>
    15b2:	2e 1b       	sub	r18, r30
    15b4:	3f 0b       	sbc	r19, r31
    15b6:	28 17       	cp	r18, r24
    15b8:	39 07       	cpc	r19, r25
    15ba:	78 f0       	brcs	.+30     	; 0x15da <malloc+0x120>
    15bc:	ac 01       	movw	r20, r24
    15be:	4e 5f       	subi	r20, 0xFE	; 254
    15c0:	5f 4f       	sbci	r21, 0xFF	; 255
    15c2:	24 17       	cp	r18, r20
    15c4:	35 07       	cpc	r19, r21
    15c6:	48 f0       	brcs	.+18     	; 0x15da <malloc+0x120>
    15c8:	4e 0f       	add	r20, r30
    15ca:	5f 1f       	adc	r21, r31
    15cc:	50 93 42 03 	sts	0x0342, r21	; 0x800342 <__brkval+0x1>
    15d0:	40 93 41 03 	sts	0x0341, r20	; 0x800341 <__brkval>
    15d4:	81 93       	st	Z+, r24
    15d6:	91 93       	st	Z+, r25
    15d8:	02 c0       	rjmp	.+4      	; 0x15de <malloc+0x124>
    15da:	e0 e0       	ldi	r30, 0x00	; 0
    15dc:	f0 e0       	ldi	r31, 0x00	; 0
    15de:	cf 01       	movw	r24, r30
    15e0:	df 91       	pop	r29
    15e2:	cf 91       	pop	r28
    15e4:	1f 91       	pop	r17
    15e6:	0f 91       	pop	r16
    15e8:	08 95       	ret

000015ea <free>:
    15ea:	cf 93       	push	r28
    15ec:	df 93       	push	r29
    15ee:	00 97       	sbiw	r24, 0x00	; 0
    15f0:	09 f4       	brne	.+2      	; 0x15f4 <free+0xa>
    15f2:	81 c0       	rjmp	.+258    	; 0x16f6 <free+0x10c>
    15f4:	fc 01       	movw	r30, r24
    15f6:	32 97       	sbiw	r30, 0x02	; 2
    15f8:	13 82       	std	Z+3, r1	; 0x03
    15fa:	12 82       	std	Z+2, r1	; 0x02
    15fc:	a0 91 43 03 	lds	r26, 0x0343	; 0x800343 <__flp>
    1600:	b0 91 44 03 	lds	r27, 0x0344	; 0x800344 <__flp+0x1>
    1604:	10 97       	sbiw	r26, 0x00	; 0
    1606:	81 f4       	brne	.+32     	; 0x1628 <free+0x3e>
    1608:	20 81       	ld	r18, Z
    160a:	31 81       	ldd	r19, Z+1	; 0x01
    160c:	82 0f       	add	r24, r18
    160e:	93 1f       	adc	r25, r19
    1610:	20 91 41 03 	lds	r18, 0x0341	; 0x800341 <__brkval>
    1614:	30 91 42 03 	lds	r19, 0x0342	; 0x800342 <__brkval+0x1>
    1618:	28 17       	cp	r18, r24
    161a:	39 07       	cpc	r19, r25
    161c:	51 f5       	brne	.+84     	; 0x1672 <free+0x88>
    161e:	f0 93 42 03 	sts	0x0342, r31	; 0x800342 <__brkval+0x1>
    1622:	e0 93 41 03 	sts	0x0341, r30	; 0x800341 <__brkval>
    1626:	67 c0       	rjmp	.+206    	; 0x16f6 <free+0x10c>
    1628:	ed 01       	movw	r28, r26
    162a:	20 e0       	ldi	r18, 0x00	; 0
    162c:	30 e0       	ldi	r19, 0x00	; 0
    162e:	ce 17       	cp	r28, r30
    1630:	df 07       	cpc	r29, r31
    1632:	40 f4       	brcc	.+16     	; 0x1644 <free+0x5a>
    1634:	4a 81       	ldd	r20, Y+2	; 0x02
    1636:	5b 81       	ldd	r21, Y+3	; 0x03
    1638:	9e 01       	movw	r18, r28
    163a:	41 15       	cp	r20, r1
    163c:	51 05       	cpc	r21, r1
    163e:	f1 f0       	breq	.+60     	; 0x167c <free+0x92>
    1640:	ea 01       	movw	r28, r20
    1642:	f5 cf       	rjmp	.-22     	; 0x162e <free+0x44>
    1644:	d3 83       	std	Z+3, r29	; 0x03
    1646:	c2 83       	std	Z+2, r28	; 0x02
    1648:	40 81       	ld	r20, Z
    164a:	51 81       	ldd	r21, Z+1	; 0x01
    164c:	84 0f       	add	r24, r20
    164e:	95 1f       	adc	r25, r21
    1650:	c8 17       	cp	r28, r24
    1652:	d9 07       	cpc	r29, r25
    1654:	59 f4       	brne	.+22     	; 0x166c <free+0x82>
    1656:	88 81       	ld	r24, Y
    1658:	99 81       	ldd	r25, Y+1	; 0x01
    165a:	84 0f       	add	r24, r20
    165c:	95 1f       	adc	r25, r21
    165e:	02 96       	adiw	r24, 0x02	; 2
    1660:	91 83       	std	Z+1, r25	; 0x01
    1662:	80 83       	st	Z, r24
    1664:	8a 81       	ldd	r24, Y+2	; 0x02
    1666:	9b 81       	ldd	r25, Y+3	; 0x03
    1668:	93 83       	std	Z+3, r25	; 0x03
    166a:	82 83       	std	Z+2, r24	; 0x02
    166c:	21 15       	cp	r18, r1
    166e:	31 05       	cpc	r19, r1
    1670:	29 f4       	brne	.+10     	; 0x167c <free+0x92>
    1672:	f0 93 44 03 	sts	0x0344, r31	; 0x800344 <__flp+0x1>
    1676:	e0 93 43 03 	sts	0x0343, r30	; 0x800343 <__flp>
    167a:	3d c0       	rjmp	.+122    	; 0x16f6 <free+0x10c>
    167c:	e9 01       	movw	r28, r18
    167e:	fb 83       	std	Y+3, r31	; 0x03
    1680:	ea 83       	std	Y+2, r30	; 0x02
    1682:	49 91       	ld	r20, Y+
    1684:	59 91       	ld	r21, Y+
    1686:	c4 0f       	add	r28, r20
    1688:	d5 1f       	adc	r29, r21
    168a:	ec 17       	cp	r30, r28
    168c:	fd 07       	cpc	r31, r29
    168e:	61 f4       	brne	.+24     	; 0x16a8 <free+0xbe>
    1690:	80 81       	ld	r24, Z
    1692:	91 81       	ldd	r25, Z+1	; 0x01
    1694:	84 0f       	add	r24, r20
    1696:	95 1f       	adc	r25, r21
    1698:	02 96       	adiw	r24, 0x02	; 2
    169a:	e9 01       	movw	r28, r18
    169c:	99 83       	std	Y+1, r25	; 0x01
    169e:	88 83       	st	Y, r24
    16a0:	82 81       	ldd	r24, Z+2	; 0x02
    16a2:	93 81       	ldd	r25, Z+3	; 0x03
    16a4:	9b 83       	std	Y+3, r25	; 0x03
    16a6:	8a 83       	std	Y+2, r24	; 0x02
    16a8:	e0 e0       	ldi	r30, 0x00	; 0
    16aa:	f0 e0       	ldi	r31, 0x00	; 0
    16ac:	12 96       	adiw	r26, 0x02	; 2
    16ae:	8d 91       	ld	r24, X+
    16b0:	9c 91       	ld	r25, X
    16b2:	13 97       	sbiw	r26, 0x03	; 3
    16b4:	00 97       	sbiw	r24, 0x00	; 0
    16b6:	19 f0       	breq	.+6      	; 0x16be <free+0xd4>
    16b8:	fd 01       	movw	r30, r26
    16ba:	dc 01       	movw	r26, r24
    16bc:	f7 cf       	rjmp	.-18     	; 0x16ac <free+0xc2>
    16be:	8d 91       	ld	r24, X+
    16c0:	9c 91       	ld	r25, X
    16c2:	11 97       	sbiw	r26, 0x01	; 1
    16c4:	9d 01       	movw	r18, r26
    16c6:	2e 5f       	subi	r18, 0xFE	; 254
    16c8:	3f 4f       	sbci	r19, 0xFF	; 255
    16ca:	82 0f       	add	r24, r18
    16cc:	93 1f       	adc	r25, r19
    16ce:	20 91 41 03 	lds	r18, 0x0341	; 0x800341 <__brkval>
    16d2:	30 91 42 03 	lds	r19, 0x0342	; 0x800342 <__brkval+0x1>
    16d6:	28 17       	cp	r18, r24
    16d8:	39 07       	cpc	r19, r25
    16da:	69 f4       	brne	.+26     	; 0x16f6 <free+0x10c>
    16dc:	30 97       	sbiw	r30, 0x00	; 0
    16de:	29 f4       	brne	.+10     	; 0x16ea <free+0x100>
    16e0:	10 92 44 03 	sts	0x0344, r1	; 0x800344 <__flp+0x1>
    16e4:	10 92 43 03 	sts	0x0343, r1	; 0x800343 <__flp>
    16e8:	02 c0       	rjmp	.+4      	; 0x16ee <free+0x104>
    16ea:	13 82       	std	Z+3, r1	; 0x03
    16ec:	12 82       	std	Z+2, r1	; 0x02
    16ee:	b0 93 42 03 	sts	0x0342, r27	; 0x800342 <__brkval+0x1>
    16f2:	a0 93 41 03 	sts	0x0341, r26	; 0x800341 <__brkval>
    16f6:	df 91       	pop	r29
    16f8:	cf 91       	pop	r28
    16fa:	08 95       	ret

000016fc <strnlen_P>:
    16fc:	fc 01       	movw	r30, r24
    16fe:	05 90       	lpm	r0, Z+
    1700:	61 50       	subi	r22, 0x01	; 1
    1702:	70 40       	sbci	r23, 0x00	; 0
    1704:	01 10       	cpse	r0, r1
    1706:	d8 f7       	brcc	.-10     	; 0x16fe <strnlen_P+0x2>
    1708:	80 95       	com	r24
    170a:	90 95       	com	r25
    170c:	8e 0f       	add	r24, r30
    170e:	9f 1f       	adc	r25, r31
    1710:	08 95       	ret

00001712 <memset>:
    1712:	dc 01       	movw	r26, r24
    1714:	01 c0       	rjmp	.+2      	; 0x1718 <memset+0x6>
    1716:	6d 93       	st	X+, r22
    1718:	41 50       	subi	r20, 0x01	; 1
    171a:	50 40       	sbci	r21, 0x00	; 0
    171c:	e0 f7       	brcc	.-8      	; 0x1716 <memset+0x4>
    171e:	08 95       	ret

00001720 <strnlen>:
    1720:	fc 01       	movw	r30, r24
    1722:	61 50       	subi	r22, 0x01	; 1
    1724:	70 40       	sbci	r23, 0x00	; 0
    1726:	01 90       	ld	r0, Z+
    1728:	01 10       	cpse	r0, r1
    172a:	d8 f7       	brcc	.-10     	; 0x1722 <strnlen+0x2>
    172c:	80 95       	com	r24
    172e:	90 95       	com	r25
    1730:	8e 0f       	add	r24, r30
    1732:	9f 1f       	adc	r25, r31
    1734:	08 95       	ret

00001736 <fputc>:
    1736:	0f 93       	push	r16
    1738:	1f 93       	push	r17
    173a:	cf 93       	push	r28
    173c:	df 93       	push	r29
    173e:	fb 01       	movw	r30, r22
    1740:	23 81       	ldd	r18, Z+3	; 0x03
    1742:	21 fd       	sbrc	r18, 1
    1744:	03 c0       	rjmp	.+6      	; 0x174c <fputc+0x16>
    1746:	8f ef       	ldi	r24, 0xFF	; 255
    1748:	9f ef       	ldi	r25, 0xFF	; 255
    174a:	2c c0       	rjmp	.+88     	; 0x17a4 <fputc+0x6e>
    174c:	22 ff       	sbrs	r18, 2
    174e:	16 c0       	rjmp	.+44     	; 0x177c <fputc+0x46>
    1750:	46 81       	ldd	r20, Z+6	; 0x06
    1752:	57 81       	ldd	r21, Z+7	; 0x07
    1754:	24 81       	ldd	r18, Z+4	; 0x04
    1756:	35 81       	ldd	r19, Z+5	; 0x05
    1758:	42 17       	cp	r20, r18
    175a:	53 07       	cpc	r21, r19
    175c:	44 f4       	brge	.+16     	; 0x176e <fputc+0x38>
    175e:	a0 81       	ld	r26, Z
    1760:	b1 81       	ldd	r27, Z+1	; 0x01
    1762:	9d 01       	movw	r18, r26
    1764:	2f 5f       	subi	r18, 0xFF	; 255
    1766:	3f 4f       	sbci	r19, 0xFF	; 255
    1768:	31 83       	std	Z+1, r19	; 0x01
    176a:	20 83       	st	Z, r18
    176c:	8c 93       	st	X, r24
    176e:	26 81       	ldd	r18, Z+6	; 0x06
    1770:	37 81       	ldd	r19, Z+7	; 0x07
    1772:	2f 5f       	subi	r18, 0xFF	; 255
    1774:	3f 4f       	sbci	r19, 0xFF	; 255
    1776:	37 83       	std	Z+7, r19	; 0x07
    1778:	26 83       	std	Z+6, r18	; 0x06
    177a:	14 c0       	rjmp	.+40     	; 0x17a4 <fputc+0x6e>
    177c:	8b 01       	movw	r16, r22
    177e:	ec 01       	movw	r28, r24
    1780:	fb 01       	movw	r30, r22
    1782:	00 84       	ldd	r0, Z+8	; 0x08
    1784:	f1 85       	ldd	r31, Z+9	; 0x09
    1786:	e0 2d       	mov	r30, r0
    1788:	09 95       	icall
    178a:	89 2b       	or	r24, r25
    178c:	e1 f6       	brne	.-72     	; 0x1746 <fputc+0x10>
    178e:	d8 01       	movw	r26, r16
    1790:	16 96       	adiw	r26, 0x06	; 6
    1792:	8d 91       	ld	r24, X+
    1794:	9c 91       	ld	r25, X
    1796:	17 97       	sbiw	r26, 0x07	; 7
    1798:	01 96       	adiw	r24, 0x01	; 1
    179a:	17 96       	adiw	r26, 0x07	; 7
    179c:	9c 93       	st	X, r25
    179e:	8e 93       	st	-X, r24
    17a0:	16 97       	sbiw	r26, 0x06	; 6
    17a2:	ce 01       	movw	r24, r28
    17a4:	df 91       	pop	r29
    17a6:	cf 91       	pop	r28
    17a8:	1f 91       	pop	r17
    17aa:	0f 91       	pop	r16
    17ac:	08 95       	ret

000017ae <__ultoa_invert>:
    17ae:	fa 01       	movw	r30, r20
    17b0:	aa 27       	eor	r26, r26
    17b2:	28 30       	cpi	r18, 0x08	; 8
    17b4:	51 f1       	breq	.+84     	; 0x180a <__ultoa_invert+0x5c>
    17b6:	20 31       	cpi	r18, 0x10	; 16
    17b8:	81 f1       	breq	.+96     	; 0x181a <__ultoa_invert+0x6c>
    17ba:	e8 94       	clt
    17bc:	6f 93       	push	r22
    17be:	6e 7f       	andi	r22, 0xFE	; 254
    17c0:	6e 5f       	subi	r22, 0xFE	; 254
    17c2:	7f 4f       	sbci	r23, 0xFF	; 255
    17c4:	8f 4f       	sbci	r24, 0xFF	; 255
    17c6:	9f 4f       	sbci	r25, 0xFF	; 255
    17c8:	af 4f       	sbci	r26, 0xFF	; 255
    17ca:	b1 e0       	ldi	r27, 0x01	; 1
    17cc:	3e d0       	rcall	.+124    	; 0x184a <__ultoa_invert+0x9c>
    17ce:	b4 e0       	ldi	r27, 0x04	; 4
    17d0:	3c d0       	rcall	.+120    	; 0x184a <__ultoa_invert+0x9c>
    17d2:	67 0f       	add	r22, r23
    17d4:	78 1f       	adc	r23, r24
    17d6:	89 1f       	adc	r24, r25
    17d8:	9a 1f       	adc	r25, r26
    17da:	a1 1d       	adc	r26, r1
    17dc:	68 0f       	add	r22, r24
    17de:	79 1f       	adc	r23, r25
    17e0:	8a 1f       	adc	r24, r26
    17e2:	91 1d       	adc	r25, r1
    17e4:	a1 1d       	adc	r26, r1
    17e6:	6a 0f       	add	r22, r26
    17e8:	71 1d       	adc	r23, r1
    17ea:	81 1d       	adc	r24, r1
    17ec:	91 1d       	adc	r25, r1
    17ee:	a1 1d       	adc	r26, r1
    17f0:	20 d0       	rcall	.+64     	; 0x1832 <__ultoa_invert+0x84>
    17f2:	09 f4       	brne	.+2      	; 0x17f6 <__ultoa_invert+0x48>
    17f4:	68 94       	set
    17f6:	3f 91       	pop	r19
    17f8:	2a e0       	ldi	r18, 0x0A	; 10
    17fa:	26 9f       	mul	r18, r22
    17fc:	11 24       	eor	r1, r1
    17fe:	30 19       	sub	r19, r0
    1800:	30 5d       	subi	r19, 0xD0	; 208
    1802:	31 93       	st	Z+, r19
    1804:	de f6       	brtc	.-74     	; 0x17bc <__ultoa_invert+0xe>
    1806:	cf 01       	movw	r24, r30
    1808:	08 95       	ret
    180a:	46 2f       	mov	r20, r22
    180c:	47 70       	andi	r20, 0x07	; 7
    180e:	40 5d       	subi	r20, 0xD0	; 208
    1810:	41 93       	st	Z+, r20
    1812:	b3 e0       	ldi	r27, 0x03	; 3
    1814:	0f d0       	rcall	.+30     	; 0x1834 <__ultoa_invert+0x86>
    1816:	c9 f7       	brne	.-14     	; 0x180a <__ultoa_invert+0x5c>
    1818:	f6 cf       	rjmp	.-20     	; 0x1806 <__ultoa_invert+0x58>
    181a:	46 2f       	mov	r20, r22
    181c:	4f 70       	andi	r20, 0x0F	; 15
    181e:	40 5d       	subi	r20, 0xD0	; 208
    1820:	4a 33       	cpi	r20, 0x3A	; 58
    1822:	18 f0       	brcs	.+6      	; 0x182a <__ultoa_invert+0x7c>
    1824:	49 5d       	subi	r20, 0xD9	; 217
    1826:	31 fd       	sbrc	r19, 1
    1828:	40 52       	subi	r20, 0x20	; 32
    182a:	41 93       	st	Z+, r20
    182c:	02 d0       	rcall	.+4      	; 0x1832 <__ultoa_invert+0x84>
    182e:	a9 f7       	brne	.-22     	; 0x181a <__ultoa_invert+0x6c>
    1830:	ea cf       	rjmp	.-44     	; 0x1806 <__ultoa_invert+0x58>
    1832:	b4 e0       	ldi	r27, 0x04	; 4
    1834:	a6 95       	lsr	r26
    1836:	97 95       	ror	r25
    1838:	87 95       	ror	r24
    183a:	77 95       	ror	r23
    183c:	67 95       	ror	r22
    183e:	ba 95       	dec	r27
    1840:	c9 f7       	brne	.-14     	; 0x1834 <__ultoa_invert+0x86>
    1842:	00 97       	sbiw	r24, 0x00	; 0
    1844:	61 05       	cpc	r22, r1
    1846:	71 05       	cpc	r23, r1
    1848:	08 95       	ret
    184a:	9b 01       	movw	r18, r22
    184c:	ac 01       	movw	r20, r24
    184e:	0a 2e       	mov	r0, r26
    1850:	06 94       	lsr	r0
    1852:	57 95       	ror	r21
    1854:	47 95       	ror	r20
    1856:	37 95       	ror	r19
    1858:	27 95       	ror	r18
    185a:	ba 95       	dec	r27
    185c:	c9 f7       	brne	.-14     	; 0x1850 <__ultoa_invert+0xa2>
    185e:	62 0f       	add	r22, r18
    1860:	73 1f       	adc	r23, r19
    1862:	84 1f       	adc	r24, r20
    1864:	95 1f       	adc	r25, r21
    1866:	a0 1d       	adc	r26, r0
    1868:	08 95       	ret

0000186a <__prologue_saves__>:
    186a:	2f 92       	push	r2
    186c:	3f 92       	push	r3
    186e:	4f 92       	push	r4
    1870:	5f 92       	push	r5
    1872:	6f 92       	push	r6
    1874:	7f 92       	push	r7
    1876:	8f 92       	push	r8
    1878:	9f 92       	push	r9
    187a:	af 92       	push	r10
    187c:	bf 92       	push	r11
    187e:	cf 92       	push	r12
    1880:	df 92       	push	r13
    1882:	ef 92       	push	r14
    1884:	ff 92       	push	r15
    1886:	0f 93       	push	r16
    1888:	1f 93       	push	r17
    188a:	cf 93       	push	r28
    188c:	df 93       	push	r29
    188e:	cd b7       	in	r28, 0x3d	; 61
    1890:	de b7       	in	r29, 0x3e	; 62
    1892:	ca 1b       	sub	r28, r26
    1894:	db 0b       	sbc	r29, r27
    1896:	0f b6       	in	r0, 0x3f	; 63
    1898:	f8 94       	cli
    189a:	de bf       	out	0x3e, r29	; 62
    189c:	0f be       	out	0x3f, r0	; 63
    189e:	cd bf       	out	0x3d, r28	; 61
    18a0:	09 94       	ijmp

000018a2 <__epilogue_restores__>:
    18a2:	2a 88       	ldd	r2, Y+18	; 0x12
    18a4:	39 88       	ldd	r3, Y+17	; 0x11
    18a6:	48 88       	ldd	r4, Y+16	; 0x10
    18a8:	5f 84       	ldd	r5, Y+15	; 0x0f
    18aa:	6e 84       	ldd	r6, Y+14	; 0x0e
    18ac:	7d 84       	ldd	r7, Y+13	; 0x0d
    18ae:	8c 84       	ldd	r8, Y+12	; 0x0c
    18b0:	9b 84       	ldd	r9, Y+11	; 0x0b
    18b2:	aa 84       	ldd	r10, Y+10	; 0x0a
    18b4:	b9 84       	ldd	r11, Y+9	; 0x09
    18b6:	c8 84       	ldd	r12, Y+8	; 0x08
    18b8:	df 80       	ldd	r13, Y+7	; 0x07
    18ba:	ee 80       	ldd	r14, Y+6	; 0x06
    18bc:	fd 80       	ldd	r15, Y+5	; 0x05
    18be:	0c 81       	ldd	r16, Y+4	; 0x04
    18c0:	1b 81       	ldd	r17, Y+3	; 0x03
    18c2:	aa 81       	ldd	r26, Y+2	; 0x02
    18c4:	b9 81       	ldd	r27, Y+1	; 0x01
    18c6:	ce 0f       	add	r28, r30
    18c8:	d1 1d       	adc	r29, r1
    18ca:	0f b6       	in	r0, 0x3f	; 63
    18cc:	f8 94       	cli
    18ce:	de bf       	out	0x3e, r29	; 62
    18d0:	0f be       	out	0x3f, r0	; 63
    18d2:	cd bf       	out	0x3d, r28	; 61
    18d4:	ed 01       	movw	r28, r26
    18d6:	08 95       	ret

000018d8 <_exit>:
    18d8:	f8 94       	cli

000018da <__stop_program>:
    18da:	ff cf       	rjmp	.-2      	; 0x18da <__stop_program>
